---
triple:          'arm64-apple-darwin'
binary-path:     "/Users/zhengkun/程式/VScode_C++/大二上（資料結構/Ch6-樹狀結構/output/6-2 鏈結串列建立二元樹"
relocations:
  - { offsetInCU: 0x6667, offset: 0x6667, size: 0x8, addend: 0x0, symName: __ZNSt3__124__put_character_sequenceB7v160006IcNS_11char_traitsIcEEEERNS_13basic_ostreamIT_T0_EES7_PKS4_m, symObjAddr: 0x8DF4, symBinAddr: 0x100009D78, symSize: 0x1F4 }
  - { offsetInCU: 0xA3BE, offset: 0xA3BE, size: 0x8, addend: 0x0, symName: __ZNSt3__1lsB7v160006IcNS_11char_traitsIcEEEERNS_13basic_ostreamIT_T0_EES7_RKNS_8__iom_t6E, symObjAddr: 0x6F8, symBinAddr: 0x10000167C, symSize: 0x40 }
  - { offsetInCU: 0xA40D, offset: 0xA40D, size: 0x8, addend: 0x0, symName: __ZNSt3__14setwB7v160006Ei, symObjAddr: 0x738, symBinAddr: 0x1000016BC, symSize: 0x2C }
  - { offsetInCU: 0xA43B, offset: 0xA43B, size: 0x8, addend: 0x0, symName: __ZNSt3__1lsB7v160006INS_11char_traitsIcEEEERNS_13basic_ostreamIcT_EES6_PKc, symObjAddr: 0x764, symBinAddr: 0x1000016E8, symSize: 0x48 }
  - { offsetInCU: 0xA481, offset: 0xA481, size: 0x8, addend: 0x0, symName: __ZNSt3__14endlB7v160006IcNS_11char_traitsIcEEEERNS_13basic_ostreamIT_T0_EES7_, symObjAddr: 0x7D8, symBinAddr: 0x10000175C, symSize: 0x58 }
  - { offsetInCU: 0xA4C1, offset: 0xA4C1, size: 0x8, addend: 0x0, symName: __ZNSt3__1neB7v160006ERKNS_16__deque_iteratorIiPiRiPS1_lLl1024EEES6_, symObjAddr: 0x1168, symBinAddr: 0x1000020EC, symSize: 0x34 }
  - { offsetInCU: 0xA4FE, offset: 0xA4FE, size: 0x8, addend: 0x0, symName: __ZNSt3__1eqB7v160006ERKNS_16__deque_iteratorIiPiRiPS1_lLl1024EEES6_, symObjAddr: 0x13FC, symBinAddr: 0x100002380, symSize: 0x30 }
  - { offsetInCU: 0xA53B, offset: 0xA53B, size: 0x8, addend: 0x0, symName: __ZNSt3__130__libcpp_is_constant_evaluatedB7v160006Ev, symObjAddr: 0x1534, symBinAddr: 0x1000024B8, symSize: 0xC }
  - { offsetInCU: 0xA558, offset: 0xA558, size: 0x8, addend: 0x0, symName: __ZNSt3__119__libcpp_deallocateB7v160006EPvmm, symObjAddr: 0x1540, symBinAddr: 0x1000024C4, symSize: 0x30 }
  - { offsetInCU: 0xA5A0, offset: 0xA5A0, size: 0x8, addend: 0x0, symName: __ZNSt3__127__do_deallocate_handle_sizeB7v160006IJEEEvPvmDpT_, symObjAddr: 0x1570, symBinAddr: 0x1000024F4, symSize: 0x28 }
  - { offsetInCU: 0xA5DE, offset: 0xA5DE, size: 0x8, addend: 0x0, symName: __ZNSt3__124__libcpp_operator_deleteB7v160006IJPvEEEvDpT_, symObjAddr: 0x1598, symBinAddr: 0x10000251C, symSize: 0x24 }
  - { offsetInCU: 0xA613, offset: 0xA613, size: 0x8, addend: 0x0, symName: __ZNSt3__112__to_addressB7v160006IPiEEPT_S3_, symObjAddr: 0x1824, symBinAddr: 0x1000027A8, symSize: 0x14 }
  - { offsetInCU: 0xA648, offset: 0xA648, size: 0x8, addend: 0x0, symName: __ZNSt3__1neB7v160006ERKNS_16__deque_iteratorIP8TreeNodePS2_RS2_PS3_lLl512EEES8_, symObjAddr: 0x1E1C, symBinAddr: 0x100002DA0, symSize: 0x34 }
  - { offsetInCU: 0xA685, offset: 0xA685, size: 0x8, addend: 0x0, symName: __ZNSt3__1eqB7v160006ERKNS_16__deque_iteratorIP8TreeNodePS2_RS2_PS3_lLl512EEES8_, symObjAddr: 0x209C, symBinAddr: 0x100003020, symSize: 0x30 }
  - { offsetInCU: 0xA6C2, offset: 0xA6C2, size: 0x8, addend: 0x0, symName: __ZNSt3__112__to_addressB7v160006IPP8TreeNodeEEPT_S5_, symObjAddr: 0x2428, symBinAddr: 0x1000033AC, symSize: 0x14 }
  - { offsetInCU: 0xA6F7, offset: 0xA6F7, size: 0x8, addend: 0x0, symName: __ZNSt3__122__make_exception_guardB7v160006INS_6vectorIiNS_9allocatorIiEEE16__destroy_vectorEEENS_28__exception_guard_exceptionsIT_EES7_, symObjAddr: 0x26D8, symBinAddr: 0x10000365C, symSize: 0x40 }
  - { offsetInCU: 0xA72C, offset: 0xA72C, size: 0x8, addend: 0x0, symName: __ZNSt3__119__debug_db_insert_cB7v160006INS_6vectorIiNS_9allocatorIiEEEEEEvPT_, symObjAddr: 0x274C, symBinAddr: 0x1000036D0, symSize: 0x10 }
  - { offsetInCU: 0xA75D, offset: 0xA75D, size: 0x8, addend: 0x0, symName: __ZNSt3__119__allocate_at_leastB7v160006INS_9allocatorIiEEEENS_19__allocation_resultINS_16allocator_traitsIT_E7pointerEEERS5_m, symObjAddr: 0x2AF0, symBinAddr: 0x100003A74, symSize: 0x40 }
  - { offsetInCU: 0xA7A0, offset: 0xA7A0, size: 0x8, addend: 0x0, symName: __ZNSt3__13minB7v160006ImEERKT_S3_S3_, symObjAddr: 0x2C2C, symBinAddr: 0x100003BB0, symSize: 0x2C }
  - { offsetInCU: 0xA9E4, offset: 0xA9E4, size: 0x8, addend: 0x0, symName: __ZNSt3__13minB7v160006ImNS_6__lessImmEEEERKT_S5_S5_T0_, symObjAddr: 0x2CB8, symBinAddr: 0x100003C3C, symSize: 0x54 }
  - { offsetInCU: 0xAA79, offset: 0xAA79, size: 0x8, addend: 0x0, symName: __ZNSt3__120__throw_length_errorB7v160006EPKc, symObjAddr: 0x2D94, symBinAddr: 0x100003D18, symSize: 0x64 }
  - { offsetInCU: 0xAAA1, offset: 0xAAA1, size: 0x8, addend: 0x0, symName: __ZNSt3__117__libcpp_allocateB7v160006Emm, symObjAddr: 0x2F30, symBinAddr: 0x100003EB4, symSize: 0x28 }
  - { offsetInCU: 0xAADE, offset: 0xAADE, size: 0x8, addend: 0x0, symName: __ZNSt3__121__libcpp_operator_newB7v160006IJmEEEPvDpT_, symObjAddr: 0x2F58, symBinAddr: 0x100003EDC, symSize: 0x24 }
  - { offsetInCU: 0xAB17, offset: 0xAB17, size: 0x8, addend: 0x0, symName: __ZNSt3__112__to_addressB7v160006IiEEPT_S2_, symObjAddr: 0x3060, symBinAddr: 0x100003FE4, symSize: 0x14 }
  - { offsetInCU: 0xAB4C, offset: 0xAB4C, size: 0x8, addend: 0x0, symName: __ZNSt3__118__debug_db_erase_cB7v160006INS_6vectorIiNS_9allocatorIiEEEEEEvPT_, symObjAddr: 0x3384, symBinAddr: 0x100004308, symSize: 0x10 }
  - { offsetInCU: 0xAB7D, offset: 0xAB7D, size: 0x8, addend: 0x0, symName: __ZNSt3__13maxB7v160006ImEERKT_S3_S3_, symObjAddr: 0x475C, symBinAddr: 0x1000056E0, symSize: 0x2C }
  - { offsetInCU: 0xB049, offset: 0xB049, size: 0x8, addend: 0x0, symName: __ZNSt3__14swapB7v160006IPPP8TreeNodeEEvRT_S6_, symObjAddr: 0x4D8C, symBinAddr: 0x100005D10, symSize: 0x3C }
  - { offsetInCU: 0xB09A, offset: 0xB09A, size: 0x8, addend: 0x0, symName: __ZNSt3__14moveB7v160006IPPP8TreeNodeS4_EET0_T_S6_S5_, symObjAddr: 0x4E70, symBinAddr: 0x100005DF4, symSize: 0x40 }
  - { offsetInCU: 0xB110, offset: 0xB110, size: 0x8, addend: 0x0, symName: __ZNSt3__16__moveB7v160006INS_17_ClassicAlgPolicyEPPP8TreeNodeS5_S5_EENS_4pairIT0_T2_EES7_T1_S8_, symObjAddr: 0x501C, symBinAddr: 0x100005FA0, symSize: 0x44 }
  - { offsetInCU: 0xB17C, offset: 0xB17C, size: 0x8, addend: 0x0, symName: __ZNSt3__123__dispatch_copy_or_moveB7v160006INS_17_ClassicAlgPolicyENS_11__move_loopIS1_EENS_14__move_trivialEPPP8TreeNodeS8_S8_EENS_4pairIT2_T4_EESA_T3_SB_, symObjAddr: 0x5060, symBinAddr: 0x100005FE4, symSize: 0x54 }
  - { offsetInCU: 0xB1FA, offset: 0xB1FA, size: 0x8, addend: 0x0, symName: __ZNSt3__121__unwrap_and_dispatchB7v160006INS_10__overloadINS_11__move_loopINS_17_ClassicAlgPolicyEEENS_14__move_trivialEEEPPP8TreeNodeSA_SA_Li0EEENS_4pairIT0_T2_EESC_T1_SD_, symObjAddr: 0x50B4, symBinAddr: 0x100006038, symSize: 0xB4 }
  - { offsetInCU: 0xB288, offset: 0xB288, size: 0x8, addend: 0x0, symName: __ZNSt3__114__unwrap_rangeB7v160006IPPP8TreeNodeS4_EENS_4pairIT0_S6_EET_S8_, symObjAddr: 0x5168, symBinAddr: 0x1000060EC, symSize: 0x60 }
  - { offsetInCU: 0xB403, offset: 0xB403, size: 0x8, addend: 0x0, symName: __ZNSt3__113__unwrap_iterB7v160006IPPP8TreeNodeNS_18__unwrap_iter_implIS4_Lb1EEELi0EEEDTclsrT0_8__unwrapclsr3stdE7declvalIT_EEEES8_, symObjAddr: 0x5210, symBinAddr: 0x100006194, symSize: 0x24 }
  - { offsetInCU: 0xB447, offset: 0xB447, size: 0x8, addend: 0x0, symName: __ZNSt3__19make_pairB7v160006IPPP8TreeNodeS4_EENS_4pairINS_18__unwrap_ref_decayIT_E4typeENS6_IT0_E4typeEEEOS7_OSA_, symObjAddr: 0x5234, symBinAddr: 0x1000061B8, symSize: 0x38 }
  - { offsetInCU: 0xB496, offset: 0xB496, size: 0x8, addend: 0x0, symName: __ZNSt3__114__rewrap_rangeB7v160006IPPP8TreeNodeS4_EET_S5_T0_, symObjAddr: 0x526C, symBinAddr: 0x1000061F0, symSize: 0x2C }
  - { offsetInCU: 0xB4E2, offset: 0xB4E2, size: 0x8, addend: 0x0, symName: __ZNSt3__113__rewrap_iterB7v160006IPPP8TreeNodeS4_NS_18__unwrap_iter_implIS4_Lb1EEEEET_S7_T0_, symObjAddr: 0x5298, symBinAddr: 0x10000621C, symSize: 0x50 }
  - { offsetInCU: 0xB537, offset: 0xB537, size: 0x8, addend: 0x0, symName: __ZNSt3__119__copy_trivial_implB7v160006IPP8TreeNodeS3_EENS_4pairIPT_PT0_EES6_S6_S8_, symObjAddr: 0x52E8, symBinAddr: 0x10000626C, symSize: 0x84 }
  - { offsetInCU: 0xB59F, offset: 0xB59F, size: 0x8, addend: 0x0, symName: __ZNSt3__19make_pairB7v160006IRPPP8TreeNodeS4_EENS_4pairINS_18__unwrap_ref_decayIT_E4typeENS7_IT0_E4typeEEEOS8_OSB_, symObjAddr: 0x536C, symBinAddr: 0x1000062F0, symSize: 0x38 }
  - { offsetInCU: 0xB641, offset: 0xB641, size: 0x8, addend: 0x0, symName: __ZNSt3__18distanceB7v160006INS_13move_iteratorIPPP8TreeNodeEEEENS_15iterator_traitsIT_E15difference_typeES8_S8_, symObjAddr: 0x5488, symBinAddr: 0x10000640C, symSize: 0x3C }
  - { offsetInCU: 0xB684, offset: 0xB684, size: 0x8, addend: 0x0, symName: __ZNSt3__110__distanceB7v160006INS_13move_iteratorIPPP8TreeNodeEEEENS_15iterator_traitsIT_E15difference_typeES8_S8_NS_26random_access_iterator_tagE, symObjAddr: 0x55C0, symBinAddr: 0x100006544, symSize: 0x30 }
  - { offsetInCU: 0xB6D1, offset: 0xB6D1, size: 0x8, addend: 0x0, symName: __ZNSt3__1miB7v160006IPPP8TreeNodeS4_EENS_13move_iteratorIT_E15difference_typeERKS7_RKNS5_IT0_EE, symObjAddr: 0x55F0, symBinAddr: 0x100006574, symSize: 0x48 }
  - { offsetInCU: 0xB720, offset: 0xB720, size: 0x8, addend: 0x0, symName: __ZNSt3__113move_backwardB7v160006IPPP8TreeNodeS4_EET0_T_S6_S5_, symObjAddr: 0x5820, symBinAddr: 0x1000067A4, symSize: 0x40 }
  - { offsetInCU: 0xB77A, offset: 0xB77A, size: 0x8, addend: 0x0, symName: __ZNSt3__115__move_backwardB7v160006INS_17_ClassicAlgPolicyEPPP8TreeNodeS5_S5_EENS_4pairIT0_T2_EES7_T1_S8_, symObjAddr: 0x5860, symBinAddr: 0x1000067E4, symSize: 0x44 }
  - { offsetInCU: 0xB7E6, offset: 0xB7E6, size: 0x8, addend: 0x0, symName: __ZNSt3__123__dispatch_copy_or_moveB7v160006INS_17_ClassicAlgPolicyENS_20__move_backward_loopIS1_EENS_23__move_backward_trivialEPPP8TreeNodeS8_S8_EENS_4pairIT2_T4_EESA_T3_SB_, symObjAddr: 0x58A4, symBinAddr: 0x100006828, symSize: 0x54 }
  - { offsetInCU: 0xB864, offset: 0xB864, size: 0x8, addend: 0x0, symName: __ZNSt3__121__unwrap_and_dispatchB7v160006INS_10__overloadINS_20__move_backward_loopINS_17_ClassicAlgPolicyEEENS_23__move_backward_trivialEEEPPP8TreeNodeSA_SA_Li0EEENS_4pairIT0_T2_EESC_T1_SD_, symObjAddr: 0x58F8, symBinAddr: 0x10000687C, symSize: 0xB4 }
  - { offsetInCU: 0xB974, offset: 0xB974, size: 0x8, addend: 0x0, symName: __ZNSt3__128__copy_backward_trivial_implB7v160006IPP8TreeNodeS3_EENS_4pairIPT_PT0_EES6_S6_S8_, symObjAddr: 0x59F4, symBinAddr: 0x100006978, symSize: 0x94 }
  - { offsetInCU: 0xB9DC, offset: 0xB9DC, size: 0x8, addend: 0x0, symName: __ZNSt3__19make_pairB7v160006IRPPP8TreeNodeS5_EENS_4pairINS_18__unwrap_ref_decayIT_E4typeENS7_IT0_E4typeEEEOS8_OSB_, symObjAddr: 0x5A88, symBinAddr: 0x100006A0C, symSize: 0x38 }
  - { offsetInCU: 0xBA2B, offset: 0xBA2B, size: 0x8, addend: 0x0, symName: __ZNSt3__13maxB7v160006ImNS_6__lessImmEEEERKT_S5_S5_T0_, symObjAddr: 0x5AC0, symBinAddr: 0x100006A44, symSize: 0x54 }
  - { offsetInCU: 0xBA85, offset: 0xBA85, size: 0x8, addend: 0x0, symName: __ZNSt3__119__allocate_at_leastB7v160006INS_9allocatorIPP8TreeNodeEEEENS_19__allocation_resultINS_16allocator_traitsIT_E7pointerEEERS8_m, symObjAddr: 0x5C24, symBinAddr: 0x100006BA8, symSize: 0x40 }
  - { offsetInCU: 0xBE9D, offset: 0xBE9D, size: 0x8, addend: 0x0, symName: __ZNSt3__14swapB7v160006IPPiEEvRT_S4_, symObjAddr: 0x7564, symBinAddr: 0x1000084E8, symSize: 0x3C }
  - { offsetInCU: 0xBEEE, offset: 0xBEEE, size: 0x8, addend: 0x0, symName: __ZNSt3__14moveB7v160006IPPiS2_EET0_T_S4_S3_, symObjAddr: 0x7648, symBinAddr: 0x1000085CC, symSize: 0x40 }
  - { offsetInCU: 0xBF48, offset: 0xBF48, size: 0x8, addend: 0x0, symName: __ZNSt3__16__moveB7v160006INS_17_ClassicAlgPolicyEPPiS3_S3_EENS_4pairIT0_T2_EES5_T1_S6_, symObjAddr: 0x77F4, symBinAddr: 0x100008778, symSize: 0x44 }
  - { offsetInCU: 0xBFB4, offset: 0xBFB4, size: 0x8, addend: 0x0, symName: __ZNSt3__123__dispatch_copy_or_moveB7v160006INS_17_ClassicAlgPolicyENS_11__move_loopIS1_EENS_14__move_trivialEPPiS6_S6_EENS_4pairIT2_T4_EES8_T3_S9_, symObjAddr: 0x7838, symBinAddr: 0x1000087BC, symSize: 0x54 }
  - { offsetInCU: 0xC032, offset: 0xC032, size: 0x8, addend: 0x0, symName: __ZNSt3__121__unwrap_and_dispatchB7v160006INS_10__overloadINS_11__move_loopINS_17_ClassicAlgPolicyEEENS_14__move_trivialEEEPPiS8_S8_Li0EEENS_4pairIT0_T2_EESA_T1_SB_, symObjAddr: 0x788C, symBinAddr: 0x100008810, symSize: 0xB4 }
  - { offsetInCU: 0xC0C0, offset: 0xC0C0, size: 0x8, addend: 0x0, symName: __ZNSt3__114__unwrap_rangeB7v160006IPPiS2_EENS_4pairIT0_S4_EET_S6_, symObjAddr: 0x7940, symBinAddr: 0x1000088C4, symSize: 0x60 }
  - { offsetInCU: 0xC1B9, offset: 0xC1B9, size: 0x8, addend: 0x0, symName: __ZNSt3__113__unwrap_iterB7v160006IPPiNS_18__unwrap_iter_implIS2_Lb1EEELi0EEEDTclsrT0_8__unwrapclsr3stdE7declvalIT_EEEES6_, symObjAddr: 0x79E8, symBinAddr: 0x10000896C, symSize: 0x24 }
  - { offsetInCU: 0xC1FD, offset: 0xC1FD, size: 0x8, addend: 0x0, symName: __ZNSt3__19make_pairB7v160006IPPiS2_EENS_4pairINS_18__unwrap_ref_decayIT_E4typeENS4_IT0_E4typeEEEOS5_OS8_, symObjAddr: 0x7A0C, symBinAddr: 0x100008990, symSize: 0x38 }
  - { offsetInCU: 0xC24C, offset: 0xC24C, size: 0x8, addend: 0x0, symName: __ZNSt3__114__rewrap_rangeB7v160006IPPiS2_EET_S3_T0_, symObjAddr: 0x7A44, symBinAddr: 0x1000089C8, symSize: 0x2C }
  - { offsetInCU: 0xC298, offset: 0xC298, size: 0x8, addend: 0x0, symName: __ZNSt3__113__rewrap_iterB7v160006IPPiS2_NS_18__unwrap_iter_implIS2_Lb1EEEEET_S5_T0_, symObjAddr: 0x7A70, symBinAddr: 0x1000089F4, symSize: 0x50 }
  - { offsetInCU: 0xC2ED, offset: 0xC2ED, size: 0x8, addend: 0x0, symName: __ZNSt3__119__copy_trivial_implB7v160006IPiS1_EENS_4pairIPT_PT0_EES4_S4_S6_, symObjAddr: 0x7AC0, symBinAddr: 0x100008A44, symSize: 0x84 }
  - { offsetInCU: 0xC355, offset: 0xC355, size: 0x8, addend: 0x0, symName: __ZNSt3__19make_pairB7v160006IRPPiS2_EENS_4pairINS_18__unwrap_ref_decayIT_E4typeENS5_IT0_E4typeEEEOS6_OS9_, symObjAddr: 0x7B44, symBinAddr: 0x100008AC8, symSize: 0x38 }
  - { offsetInCU: 0xC3F7, offset: 0xC3F7, size: 0x8, addend: 0x0, symName: __ZNSt3__18distanceB7v160006INS_13move_iteratorIPPiEEEENS_15iterator_traitsIT_E15difference_typeES6_S6_, symObjAddr: 0x7C60, symBinAddr: 0x100008BE4, symSize: 0x3C }
  - { offsetInCU: 0xC43A, offset: 0xC43A, size: 0x8, addend: 0x0, symName: __ZNSt3__110__distanceB7v160006INS_13move_iteratorIPPiEEEENS_15iterator_traitsIT_E15difference_typeES6_S6_NS_26random_access_iterator_tagE, symObjAddr: 0x7D98, symBinAddr: 0x100008D1C, symSize: 0x30 }
  - { offsetInCU: 0xC487, offset: 0xC487, size: 0x8, addend: 0x0, symName: __ZNSt3__1miB7v160006IPPiS2_EENS_13move_iteratorIT_E15difference_typeERKS5_RKNS3_IT0_EE, symObjAddr: 0x7DC8, symBinAddr: 0x100008D4C, symSize: 0x48 }
  - { offsetInCU: 0xC4D6, offset: 0xC4D6, size: 0x8, addend: 0x0, symName: __ZNSt3__113move_backwardB7v160006IPPiS2_EET0_T_S4_S3_, symObjAddr: 0x7F3C, symBinAddr: 0x100008EC0, symSize: 0x40 }
  - { offsetInCU: 0xC530, offset: 0xC530, size: 0x8, addend: 0x0, symName: __ZNSt3__115__move_backwardB7v160006INS_17_ClassicAlgPolicyEPPiS3_S3_EENS_4pairIT0_T2_EES5_T1_S6_, symObjAddr: 0x7F7C, symBinAddr: 0x100008F00, symSize: 0x44 }
  - { offsetInCU: 0xC59C, offset: 0xC59C, size: 0x8, addend: 0x0, symName: __ZNSt3__123__dispatch_copy_or_moveB7v160006INS_17_ClassicAlgPolicyENS_20__move_backward_loopIS1_EENS_23__move_backward_trivialEPPiS6_S6_EENS_4pairIT2_T4_EES8_T3_S9_, symObjAddr: 0x7FC0, symBinAddr: 0x100008F44, symSize: 0x54 }
  - { offsetInCU: 0xC61A, offset: 0xC61A, size: 0x8, addend: 0x0, symName: __ZNSt3__121__unwrap_and_dispatchB7v160006INS_10__overloadINS_20__move_backward_loopINS_17_ClassicAlgPolicyEEENS_23__move_backward_trivialEEEPPiS8_S8_Li0EEENS_4pairIT0_T2_EESA_T1_SB_, symObjAddr: 0x8014, symBinAddr: 0x100008F98, symSize: 0xB4 }
  - { offsetInCU: 0xC6A8, offset: 0xC6A8, size: 0x8, addend: 0x0, symName: __ZNSt3__128__copy_backward_trivial_implB7v160006IPiS1_EENS_4pairIPT_PT0_EES4_S4_S6_, symObjAddr: 0x8110, symBinAddr: 0x100009094, symSize: 0x94 }
  - { offsetInCU: 0xC710, offset: 0xC710, size: 0x8, addend: 0x0, symName: __ZNSt3__19make_pairB7v160006IRPPiS3_EENS_4pairINS_18__unwrap_ref_decayIT_E4typeENS5_IT0_E4typeEEEOS6_OS9_, symObjAddr: 0x81A4, symBinAddr: 0x100009128, symSize: 0x38 }
  - { offsetInCU: 0xC75F, offset: 0xC75F, size: 0x8, addend: 0x0, symName: __ZNSt3__119__allocate_at_leastB7v160006INS_9allocatorIPiEEEENS_19__allocation_resultINS_16allocator_traitsIT_E7pointerEEERS6_m, symObjAddr: 0x82EC, symBinAddr: 0x100009270, symSize: 0x40 }
  - { offsetInCU: 0xC7A2, offset: 0xC7A2, size: 0x8, addend: 0x0, symName: __ZNSt3__112__to_addressB7v160006IP8TreeNodeEEPT_S4_, symObjAddr: 0x8AA8, symBinAddr: 0x100009A2C, symSize: 0x14 }
  - { offsetInCU: 0xC7D7, offset: 0xC7D7, size: 0x8, addend: 0x0, symName: __ZNSt3__116__pad_and_outputB7v160006IcNS_11char_traitsIcEEEENS_19ostreambuf_iteratorIT_T0_EES6_PKS4_S8_S8_RNS_8ios_baseES4_, symObjAddr: 0x904C, symBinAddr: 0x100009FD0, symSize: 0x248 }
  - { offsetInCU: 0xC8A6, offset: 0xC8A6, size: 0x8, addend: 0x0, symName: __ZNSt3__119__debug_db_insert_cB7v160006INS_12basic_stringIcNS_11char_traitsIcEENS_9allocatorIcEEEEEEvPT_, symObjAddr: 0x94DC, symBinAddr: 0x10000A460, symSize: 0x10 }
  - { offsetInCU: 0xC8D7, offset: 0xC8D7, size: 0x8, addend: 0x0, symName: __ZNSt3__112__to_addressB7v160006IKcEEPT_S3_, symObjAddr: 0x95A8, symBinAddr: 0x10000A52C, symSize: 0x14 }
  - { offsetInCU: 0xC93F, offset: 0xC93F, size: 0x8, addend: 0x0, symName: __ZNSt3__19use_facetB7v160006INS_5ctypeIcEEEERKT_RKNS_6localeE, symObjAddr: 0x9880, symBinAddr: 0x10000A804, symSize: 0x2C }
  - { offsetInCU: 0xCE0E, offset: 0xCE0E, size: 0x8, addend: 0x0, symName: __ZNSt3__118__constexpr_strlenB7v160006EPKc, symObjAddr: 0x9918, symBinAddr: 0x10000A89C, symSize: 0x24 }
  - { offsetInCU: 0xCE3A, offset: 0xCE3A, size: 0x8, addend: 0x0, symName: __ZNSt3__130__uninitialized_allocator_copyB7v160006INS_9allocatorIiEEPiS3_S3_EET2_RT_T0_T1_S4_, symObjAddr: 0x9B90, symBinAddr: 0x10000AB14, symSize: 0xFC }
  - { offsetInCU: 0xCED8, offset: 0xCED8, size: 0x8, addend: 0x0, symName: __ZNSt3__122__make_exception_guardB7v160006INS_29_AllocatorDestroyRangeReverseINS_9allocatorIiEEPiEEEENS_28__exception_guard_exceptionsIT_EES7_, symObjAddr: 0x9C8C, symBinAddr: 0x10000AC10, symSize: 0x4C }
  - { offsetInCU: 0xCF0E, offset: 0xCF0E, size: 0x8, addend: 0x0, symName: __ZNSt3__119__allocator_destroyB7v160006INS_9allocatorIiEENS_16reverse_iteratorIPiEES5_EEvRT_T0_T1_, symObjAddr: 0x9F0C, symBinAddr: 0x10000AE90, symSize: 0x70 }
  - { offsetInCU: 0xCF71, offset: 0xCF71, size: 0x8, addend: 0x0, symName: __ZNSt3__1neB7v160006IPiS1_EEbRKNS_16reverse_iteratorIT_EERKNS2_IT0_EE, symObjAddr: 0x9FB0, symBinAddr: 0x10000AF34, symSize: 0x48 }
  - { offsetInCU: 0xCFBD, offset: 0xCFBD, size: 0x8, addend: 0x0, symName: __ZNSt3__112__to_addressB7v160006INS_16reverse_iteratorIPiEEvEENS_5decayIDTclsr19__to_address_helperIT_EE6__callclsr3stdE7declvalIRKS5_EEEEE4typeES7_, symObjAddr: 0x9FF8, symBinAddr: 0x10000AF7C, symSize: 0x24 }
  - { offsetInCU: 0xD315, offset: 0xD315, size: 0x8, addend: 0x0, symName: __ZSt28__throw_bad_array_new_lengthB7v160006v, symObjAddr: 0x2EFC, symBinAddr: 0x100003E80, symSize: 0x34 }
  - { offsetInCU: 0xD7E3, offset: 0xD7E3, size: 0x8, addend: 0x0, symName: __Z3powB7v160006IiiENSt3__19enable_ifIXaasr3std13is_arithmeticIT_EE5valuesr3std13is_arithmeticIT0_EE5valueENS0_9__promoteIS2_S3_vEEE4type4typeES2_S3_, symObjAddr: 0x4C4, symBinAddr: 0x100001448, symSize: 0x44 }
  - { offsetInCU: 0xFFA6, offset: 0xFFA6, size: 0x8, addend: 0x0, symName: __ZN7BinTree4PlotEv, symObjAddr: 0x0, symBinAddr: 0x100000F84, symSize: 0x4C4 }
  - { offsetInCU: 0x1009B, offset: 0x1009B, size: 0x8, addend: 0x0, symName: __ZNSt3__16vectorIiNS_9allocatorIiEEEC1Em, symObjAddr: 0x508, symBinAddr: 0x10000148C, symSize: 0x34 }
  - { offsetInCU: 0x10103, offset: 0x10103, size: 0x8, addend: 0x0, symName: __ZNSt3__15queueIP8TreeNodeNS_5dequeIS2_NS_9allocatorIS2_EEEEEC1B7v160006Ev, symObjAddr: 0x53C, symBinAddr: 0x1000014C0, symSize: 0x2C }
  - { offsetInCU: 0x1015A, offset: 0x1015A, size: 0x8, addend: 0x0, symName: __ZNSt3__15queueIiNS_5dequeIiNS_9allocatorIiEEEEEC1B7v160006Ev, symObjAddr: 0x568, symBinAddr: 0x1000014EC, symSize: 0x2C }
  - { offsetInCU: 0x10184, offset: 0x10184, size: 0x8, addend: 0x0, symName: __ZNSt3__15queueIP8TreeNodeNS_5dequeIS2_NS_9allocatorIS2_EEEEE4pushB7v160006ERKS2_, symObjAddr: 0x594, symBinAddr: 0x100001518, symSize: 0x2C }
  - { offsetInCU: 0x101B9, offset: 0x101B9, size: 0x8, addend: 0x0, symName: __ZNSt3__15queueIiNS_5dequeIiNS_9allocatorIiEEEEE4pushB7v160006ERKi, symObjAddr: 0x5C0, symBinAddr: 0x100001544, symSize: 0x2C }
  - { offsetInCU: 0x101EE, offset: 0x101EE, size: 0x8, addend: 0x0, symName: __ZNKSt3__15queueIP8TreeNodeNS_5dequeIS2_NS_9allocatorIS2_EEEEE5emptyB7v160006Ev, symObjAddr: 0x5EC, symBinAddr: 0x100001570, symSize: 0x28 }
  - { offsetInCU: 0x10214, offset: 0x10214, size: 0x8, addend: 0x0, symName: __ZNSt3__15queueIP8TreeNodeNS_5dequeIS2_NS_9allocatorIS2_EEEEE5frontB7v160006Ev, symObjAddr: 0x614, symBinAddr: 0x100001598, symSize: 0x24 }
  - { offsetInCU: 0x1023A, offset: 0x1023A, size: 0x8, addend: 0x0, symName: __ZNSt3__15queueIP8TreeNodeNS_5dequeIS2_NS_9allocatorIS2_EEEEE3popB7v160006Ev, symObjAddr: 0x638, symBinAddr: 0x1000015BC, symSize: 0x24 }
  - { offsetInCU: 0x10260, offset: 0x10260, size: 0x8, addend: 0x0, symName: __ZNSt3__15queueIiNS_5dequeIiNS_9allocatorIiEEEEE5frontB7v160006Ev, symObjAddr: 0x65C, symBinAddr: 0x1000015E0, symSize: 0x24 }
  - { offsetInCU: 0x10286, offset: 0x10286, size: 0x8, addend: 0x0, symName: __ZNSt3__15queueIiNS_5dequeIiNS_9allocatorIiEEEEE3popB7v160006Ev, symObjAddr: 0x680, symBinAddr: 0x100001604, symSize: 0x24 }
  - { offsetInCU: 0x102AC, offset: 0x102AC, size: 0x8, addend: 0x0, symName: __ZNSt3__16vectorIiNS_9allocatorIiEEEixB7v160006Em, symObjAddr: 0x6A4, symBinAddr: 0x100001628, symSize: 0x24 }
  - { offsetInCU: 0x102E2, offset: 0x102E2, size: 0x8, addend: 0x0, symName: __Z3logB7v160006IiENSt3__19enable_ifIXsr3std11is_integralIT_EE5valueEdE4typeES2_, symObjAddr: 0x6C8, symBinAddr: 0x10000164C, symSize: 0x30 }
  - { offsetInCU: 0x1031A, offset: 0x1031A, size: 0x8, addend: 0x0, symName: __ZNSt3__113basic_ostreamIcNS_11char_traitsIcEEElsB7v160006EPFRS3_S4_E, symObjAddr: 0x7AC, symBinAddr: 0x100001730, symSize: 0x2C }
  - { offsetInCU: 0x1034E, offset: 0x1034E, size: 0x8, addend: 0x0, symName: __ZNSt3__15queueIiNS_5dequeIiNS_9allocatorIiEEEEED1Ev, symObjAddr: 0x830, symBinAddr: 0x1000017B4, symSize: 0x2C }
  - { offsetInCU: 0x1037B, offset: 0x1037B, size: 0x8, addend: 0x0, symName: __ZNSt3__15queueIP8TreeNodeNS_5dequeIS2_NS_9allocatorIS2_EEEEED1Ev, symObjAddr: 0x868, symBinAddr: 0x1000017EC, symSize: 0x2C }
  - { offsetInCU: 0x103A8, offset: 0x103A8, size: 0x8, addend: 0x0, symName: __ZNSt3__16vectorIiNS_9allocatorIiEEED1B7v160006Ev, symObjAddr: 0x894, symBinAddr: 0x100001818, symSize: 0x2C }
  - { offsetInCU: 0x103D2, offset: 0x103D2, size: 0x8, addend: 0x0, symName: _main, symObjAddr: 0x8C0, symBinAddr: 0x100001844, symSize: 0x124 }
  - { offsetInCU: 0x10450, offset: 0x10450, size: 0x8, addend: 0x0, symName: __ZN7BinTree9BuildTreeENSt3__16vectorIiNS0_9allocatorIiEEEEi, symObjAddr: 0x9E4, symBinAddr: 0x100001968, symSize: 0x234 }
  - { offsetInCU: 0x104C9, offset: 0x104C9, size: 0x8, addend: 0x0, symName: __ZNSt3__16vectorIiNS_9allocatorIiEEEC1ERKS3_, symObjAddr: 0xC18, symBinAddr: 0x100001B9C, symSize: 0x34 }
  - { offsetInCU: 0x10504, offset: 0x10504, size: 0x8, addend: 0x0, symName: __ZNSt3__18__iom_t6C1B7v160006Ei, symObjAddr: 0xC4C, symBinAddr: 0x100001BD0, symSize: 0x34 }
  - { offsetInCU: 0x1053C, offset: 0x1053C, size: 0x8, addend: 0x0, symName: __ZNSt3__18__iom_t6C2B7v160006Ei, symObjAddr: 0xC80, symBinAddr: 0x100001C04, symSize: 0x20 }
  - { offsetInCU: 0x10574, offset: 0x10574, size: 0x8, addend: 0x0, symName: __ZNSt3__15queueIiNS_5dequeIiNS_9allocatorIiEEEEED2Ev, symObjAddr: 0xCA0, symBinAddr: 0x100001C24, symSize: 0x2C }
  - { offsetInCU: 0x105A1, offset: 0x105A1, size: 0x8, addend: 0x0, symName: __ZNSt3__15dequeIiNS_9allocatorIiEEED1B7v160006Ev, symObjAddr: 0xCCC, symBinAddr: 0x100001C50, symSize: 0x2C }
  - { offsetInCU: 0x105CB, offset: 0x105CB, size: 0x8, addend: 0x0, symName: __ZNSt3__15dequeIiNS_9allocatorIiEEED2B7v160006Ev, symObjAddr: 0xCF8, symBinAddr: 0x100001C7C, symSize: 0x9C }
  - { offsetInCU: 0x10622, offset: 0x10622, size: 0x8, addend: 0x0, symName: __ZNSt3__15dequeIiNS_9allocatorIiEEE5clearEv, symObjAddr: 0xD94, symBinAddr: 0x100001D18, symSize: 0x194 }
  - { offsetInCU: 0x10686, offset: 0x10686, size: 0x8, addend: 0x0, symName: __ZNSt3__114__split_bufferIPiNS_9allocatorIS1_EEE5beginB7v160006Ev, symObjAddr: 0xF28, symBinAddr: 0x100001EAC, symSize: 0x18 }
  - { offsetInCU: 0x106AC, offset: 0x106AC, size: 0x8, addend: 0x0, symName: __ZNSt3__114__split_bufferIPiNS_9allocatorIS1_EEE3endB7v160006Ev, symObjAddr: 0xF40, symBinAddr: 0x100001EC4, symSize: 0x18 }
  - { offsetInCU: 0x106D2, offset: 0x106D2, size: 0x8, addend: 0x0, symName: __ZNSt3__116allocator_traitsINS_9allocatorIiEEE10deallocateB7v160006ERS2_Pim, symObjAddr: 0xF58, symBinAddr: 0x100001EDC, symSize: 0x34 }
  - { offsetInCU: 0x10714, offset: 0x10714, size: 0x8, addend: 0x0, symName: __ZNSt3__15dequeIiNS_9allocatorIiEEE7__allocB7v160006Ev, symObjAddr: 0xF8C, symBinAddr: 0x100001F10, symSize: 0x28 }
  - { offsetInCU: 0x1073A, offset: 0x1073A, size: 0x8, addend: 0x0, symName: __ZNSt3__114__split_bufferIPiNS_9allocatorIS1_EEED1Ev, symObjAddr: 0xFB4, symBinAddr: 0x100001F38, symSize: 0x2C }
  - { offsetInCU: 0x10766, offset: 0x10766, size: 0x8, addend: 0x0, symName: __ZNSt3__15dequeIiNS_9allocatorIiEEE5beginB7v160006Ev, symObjAddr: 0xFE0, symBinAddr: 0x100001F64, symSize: 0xCC }
  - { offsetInCU: 0x1079B, offset: 0x1079B, size: 0x8, addend: 0x0, symName: __ZNSt3__15dequeIiNS_9allocatorIiEEE3endB7v160006Ev, symObjAddr: 0x10AC, symBinAddr: 0x100002030, symSize: 0xBC }
  - { offsetInCU: 0x107DF, offset: 0x107DF, size: 0x8, addend: 0x0, symName: __ZNSt3__116allocator_traitsINS_9allocatorIiEEE7destroyB7v160006IivEEvRS2_PT_, symObjAddr: 0x119C, symBinAddr: 0x100002120, symSize: 0x2C }
  - { offsetInCU: 0x1081C, offset: 0x1081C, size: 0x8, addend: 0x0, symName: __ZNKSt3__116__deque_iteratorIiPiRiPS1_lLl1024EEdeB7v160006Ev, symObjAddr: 0x11C8, symBinAddr: 0x10000214C, symSize: 0x18 }
  - { offsetInCU: 0x10842, offset: 0x10842, size: 0x8, addend: 0x0, symName: __ZNSt3__116__deque_iteratorIiPiRiPS1_lLl1024EEppB7v160006Ev, symObjAddr: 0x11E0, symBinAddr: 0x100002164, symSize: 0x70 }
  - { offsetInCU: 0x10868, offset: 0x10868, size: 0x8, addend: 0x0, symName: __ZNSt3__15dequeIiNS_9allocatorIiEEE6__sizeB7v160006Ev, symObjAddr: 0x1250, symBinAddr: 0x1000021D4, symSize: 0x28 }
  - { offsetInCU: 0x1088E, offset: 0x1088E, size: 0x8, addend: 0x0, symName: __ZNKSt3__114__split_bufferIPiNS_9allocatorIS1_EEE4sizeB7v160006Ev, symObjAddr: 0x1278, symBinAddr: 0x1000021FC, symSize: 0x28 }
  - { offsetInCU: 0x108B4, offset: 0x108B4, size: 0x8, addend: 0x0, symName: __ZNSt3__114__split_bufferIPiNS_9allocatorIS1_EEE5frontB7v160006Ev, symObjAddr: 0x12A0, symBinAddr: 0x100002224, symSize: 0x18 }
  - { offsetInCU: 0x108DA, offset: 0x108DA, size: 0x8, addend: 0x0, symName: __ZNSt3__114__split_bufferIPiNS_9allocatorIS1_EEE9pop_frontB7v160006Ev, symObjAddr: 0x12B8, symBinAddr: 0x10000223C, symSize: 0x2C }
  - { offsetInCU: 0x10900, offset: 0x10900, size: 0x8, addend: 0x0, symName: __ZNKSt3__114__split_bufferIPiNS_9allocatorIS1_EEE5emptyB7v160006Ev, symObjAddr: 0x12E4, symBinAddr: 0x100002268, symSize: 0x28 }
  - { offsetInCU: 0x10926, offset: 0x10926, size: 0x8, addend: 0x0, symName: __ZNSt3__116__deque_iteratorIiPiRiPS1_lLl1024EEC1B7v160006ES3_S1_, symObjAddr: 0x130C, symBinAddr: 0x100002290, symSize: 0x3C }
  - { offsetInCU: 0x1096E, offset: 0x1096E, size: 0x8, addend: 0x0, symName: __ZNSt3__116__deque_iteratorIiPiRiPS1_lLl1024EEC2B7v160006ES3_S1_, symObjAddr: 0x1348, symBinAddr: 0x1000022CC, symSize: 0x2C }
  - { offsetInCU: 0x109B6, offset: 0x109B6, size: 0x8, addend: 0x0, symName: __ZNKSt3__15dequeIiNS_9allocatorIiEEE4sizeB7v160006Ev, symObjAddr: 0x1374, symBinAddr: 0x1000022F8, symSize: 0x28 }
  - { offsetInCU: 0x109DC, offset: 0x109DC, size: 0x8, addend: 0x0, symName: __ZNKSt3__15dequeIiNS_9allocatorIiEEE6__sizeB7v160006Ev, symObjAddr: 0x139C, symBinAddr: 0x100002320, symSize: 0x28 }
  - { offsetInCU: 0x10A02, offset: 0x10A02, size: 0x8, addend: 0x0, symName: __ZNKSt3__117__compressed_pairImNS_9allocatorIiEEE5firstB7v160006Ev, symObjAddr: 0x13C4, symBinAddr: 0x100002348, symSize: 0x24 }
  - { offsetInCU: 0x10A28, offset: 0x10A28, size: 0x8, addend: 0x0, symName: __ZNKSt3__122__compressed_pair_elemImLi0ELb0EE5__getB7v160006Ev, symObjAddr: 0x13E8, symBinAddr: 0x10000236C, symSize: 0x14 }
  - { offsetInCU: 0x10A4E, offset: 0x10A4E, size: 0x8, addend: 0x0, symName: __ZNSt3__19allocatorIiE7destroyB7v160006EPi, symObjAddr: 0x142C, symBinAddr: 0x1000023B0, symSize: 0x14 }
  - { offsetInCU: 0x10A82, offset: 0x10A82, size: 0x8, addend: 0x0, symName: __ZNSt3__117__compressed_pairImNS_9allocatorIiEEE5firstB7v160006Ev, symObjAddr: 0x1440, symBinAddr: 0x1000023C4, symSize: 0x24 }
  - { offsetInCU: 0x10AA8, offset: 0x10AA8, size: 0x8, addend: 0x0, symName: __ZNSt3__122__compressed_pair_elemImLi0ELb0EE5__getB7v160006Ev, symObjAddr: 0x1464, symBinAddr: 0x1000023E8, symSize: 0x14 }
  - { offsetInCU: 0x10ACE, offset: 0x10ACE, size: 0x8, addend: 0x0, symName: __ZNSt3__114__split_bufferIPiNS_9allocatorIS1_EEE19__destruct_at_beginB7v160006EPS1_, symObjAddr: 0x1478, symBinAddr: 0x1000023FC, symSize: 0x2C }
  - { offsetInCU: 0x10B02, offset: 0x10B02, size: 0x8, addend: 0x0, symName: __ZNSt3__114__split_bufferIPiNS_9allocatorIS1_EEE19__destruct_at_beginEPS1_NS_17integral_constantIbLb1EEE, symObjAddr: 0x14A4, symBinAddr: 0x100002428, symSize: 0x20 }
  - { offsetInCU: 0x10B42, offset: 0x10B42, size: 0x8, addend: 0x0, symName: __ZNSt3__19allocatorIiE10deallocateB7v160006EPim, symObjAddr: 0x14C4, symBinAddr: 0x100002448, symSize: 0x70 }
  - { offsetInCU: 0x10B84, offset: 0x10B84, size: 0x8, addend: 0x0, symName: __ZNSt3__117__compressed_pairImNS_9allocatorIiEEE6secondB7v160006Ev, symObjAddr: 0x15BC, symBinAddr: 0x100002540, symSize: 0x24 }
  - { offsetInCU: 0x10BAA, offset: 0x10BAA, size: 0x8, addend: 0x0, symName: __ZNSt3__122__compressed_pair_elemINS_9allocatorIiEELi1ELb1EE5__getB7v160006Ev, symObjAddr: 0x15E0, symBinAddr: 0x100002564, symSize: 0x14 }
  - { offsetInCU: 0x10BD0, offset: 0x10BD0, size: 0x8, addend: 0x0, symName: __ZNSt3__114__split_bufferIPiNS_9allocatorIS1_EEED2Ev, symObjAddr: 0x15F4, symBinAddr: 0x100002578, symSize: 0x80 }
  - { offsetInCU: 0x10BFC, offset: 0x10BFC, size: 0x8, addend: 0x0, symName: __ZNSt3__114__split_bufferIPiNS_9allocatorIS1_EEE5clearB7v160006Ev, symObjAddr: 0x1674, symBinAddr: 0x1000025F8, symSize: 0x28 }
  - { offsetInCU: 0x10C22, offset: 0x10C22, size: 0x8, addend: 0x0, symName: __ZNSt3__116allocator_traitsINS_9allocatorIPiEEE10deallocateB7v160006ERS3_PS2_m, symObjAddr: 0x169C, symBinAddr: 0x100002620, symSize: 0x34 }
  - { offsetInCU: 0x10C64, offset: 0x10C64, size: 0x8, addend: 0x0, symName: __ZNSt3__114__split_bufferIPiNS_9allocatorIS1_EEE7__allocB7v160006Ev, symObjAddr: 0x16D0, symBinAddr: 0x100002654, symSize: 0x28 }
  - { offsetInCU: 0x10C8A, offset: 0x10C8A, size: 0x8, addend: 0x0, symName: __ZNKSt3__114__split_bufferIPiNS_9allocatorIS1_EEE8capacityB7v160006Ev, symObjAddr: 0x16F8, symBinAddr: 0x10000267C, symSize: 0x40 }
  - { offsetInCU: 0x10CB0, offset: 0x10CB0, size: 0x8, addend: 0x0, symName: __ZNSt3__114__split_bufferIPiNS_9allocatorIS1_EEE17__destruct_at_endB7v160006EPS1_, symObjAddr: 0x1738, symBinAddr: 0x1000026BC, symSize: 0x2C }
  - { offsetInCU: 0x10CE4, offset: 0x10CE4, size: 0x8, addend: 0x0, symName: __ZNSt3__114__split_bufferIPiNS_9allocatorIS1_EEE17__destruct_at_endB7v160006EPS1_NS_17integral_constantIbLb0EEE, symObjAddr: 0x1764, symBinAddr: 0x1000026E8, symSize: 0x94 }
  - { offsetInCU: 0x10D24, offset: 0x10D24, size: 0x8, addend: 0x0, symName: __ZNSt3__116allocator_traitsINS_9allocatorIPiEEE7destroyB7v160006IS2_vEEvRS3_PT_, symObjAddr: 0x17F8, symBinAddr: 0x10000277C, symSize: 0x2C }
  - { offsetInCU: 0x10D61, offset: 0x10D61, size: 0x8, addend: 0x0, symName: __ZNSt3__19allocatorIPiE7destroyB7v160006EPS1_, symObjAddr: 0x1838, symBinAddr: 0x1000027BC, symSize: 0x14 }
  - { offsetInCU: 0x10D95, offset: 0x10D95, size: 0x8, addend: 0x0, symName: __ZNSt3__19allocatorIPiE10deallocateB7v160006EPS1_m, symObjAddr: 0x184C, symBinAddr: 0x1000027D0, symSize: 0x70 }
  - { offsetInCU: 0x10DD7, offset: 0x10DD7, size: 0x8, addend: 0x0, symName: __ZNSt3__117__compressed_pairIPPiNS_9allocatorIS1_EEE6secondB7v160006Ev, symObjAddr: 0x18BC, symBinAddr: 0x100002840, symSize: 0x24 }
  - { offsetInCU: 0x10DFD, offset: 0x10DFD, size: 0x8, addend: 0x0, symName: __ZNSt3__122__compressed_pair_elemINS_9allocatorIPiEELi1ELb1EE5__getB7v160006Ev, symObjAddr: 0x18E0, symBinAddr: 0x100002864, symSize: 0x14 }
  - { offsetInCU: 0x10E23, offset: 0x10E23, size: 0x8, addend: 0x0, symName: __ZNKSt3__114__split_bufferIPiNS_9allocatorIS1_EEE9__end_capB7v160006Ev, symObjAddr: 0x18F4, symBinAddr: 0x100002878, symSize: 0x28 }
  - { offsetInCU: 0x10E49, offset: 0x10E49, size: 0x8, addend: 0x0, symName: __ZNKSt3__117__compressed_pairIPPiNS_9allocatorIS1_EEE5firstB7v160006Ev, symObjAddr: 0x191C, symBinAddr: 0x1000028A0, symSize: 0x24 }
  - { offsetInCU: 0x10E6F, offset: 0x10E6F, size: 0x8, addend: 0x0, symName: __ZNKSt3__122__compressed_pair_elemIPPiLi0ELb0EE5__getB7v160006Ev, symObjAddr: 0x1940, symBinAddr: 0x1000028C4, symSize: 0x14 }
  - { offsetInCU: 0x10E95, offset: 0x10E95, size: 0x8, addend: 0x0, symName: __ZNSt3__15queueIP8TreeNodeNS_5dequeIS2_NS_9allocatorIS2_EEEEED2Ev, symObjAddr: 0x1954, symBinAddr: 0x1000028D8, symSize: 0x2C }
  - { offsetInCU: 0x10EC2, offset: 0x10EC2, size: 0x8, addend: 0x0, symName: __ZNSt3__15dequeIP8TreeNodeNS_9allocatorIS2_EEED1B7v160006Ev, symObjAddr: 0x1980, symBinAddr: 0x100002904, symSize: 0x2C }
  - { offsetInCU: 0x10EEC, offset: 0x10EEC, size: 0x8, addend: 0x0, symName: __ZNSt3__15dequeIP8TreeNodeNS_9allocatorIS2_EEED2B7v160006Ev, symObjAddr: 0x19AC, symBinAddr: 0x100002930, symSize: 0x9C }
  - { offsetInCU: 0x10F43, offset: 0x10F43, size: 0x8, addend: 0x0, symName: __ZNSt3__15dequeIP8TreeNodeNS_9allocatorIS2_EEE5clearEv, symObjAddr: 0x1A48, symBinAddr: 0x1000029CC, symSize: 0x194 }
  - { offsetInCU: 0x10FA7, offset: 0x10FA7, size: 0x8, addend: 0x0, symName: __ZNSt3__114__split_bufferIPP8TreeNodeNS_9allocatorIS3_EEE5beginB7v160006Ev, symObjAddr: 0x1BDC, symBinAddr: 0x100002B60, symSize: 0x18 }
  - { offsetInCU: 0x10FCD, offset: 0x10FCD, size: 0x8, addend: 0x0, symName: __ZNSt3__114__split_bufferIPP8TreeNodeNS_9allocatorIS3_EEE3endB7v160006Ev, symObjAddr: 0x1BF4, symBinAddr: 0x100002B78, symSize: 0x18 }
  - { offsetInCU: 0x10FF3, offset: 0x10FF3, size: 0x8, addend: 0x0, symName: __ZNSt3__116allocator_traitsINS_9allocatorIP8TreeNodeEEE10deallocateB7v160006ERS4_PS3_m, symObjAddr: 0x1C0C, symBinAddr: 0x100002B90, symSize: 0x34 }
  - { offsetInCU: 0x11035, offset: 0x11035, size: 0x8, addend: 0x0, symName: __ZNSt3__15dequeIP8TreeNodeNS_9allocatorIS2_EEE7__allocB7v160006Ev, symObjAddr: 0x1C40, symBinAddr: 0x100002BC4, symSize: 0x28 }
  - { offsetInCU: 0x1105B, offset: 0x1105B, size: 0x8, addend: 0x0, symName: __ZNSt3__114__split_bufferIPP8TreeNodeNS_9allocatorIS3_EEED1Ev, symObjAddr: 0x1C68, symBinAddr: 0x100002BEC, symSize: 0x2C }
  - { offsetInCU: 0x11087, offset: 0x11087, size: 0x8, addend: 0x0, symName: __ZNSt3__15dequeIP8TreeNodeNS_9allocatorIS2_EEE5beginB7v160006Ev, symObjAddr: 0x1C94, symBinAddr: 0x100002C18, symSize: 0xCC }
  - { offsetInCU: 0x110BC, offset: 0x110BC, size: 0x8, addend: 0x0, symName: __ZNSt3__15dequeIP8TreeNodeNS_9allocatorIS2_EEE3endB7v160006Ev, symObjAddr: 0x1D60, symBinAddr: 0x100002CE4, symSize: 0xBC }
  - { offsetInCU: 0x11100, offset: 0x11100, size: 0x8, addend: 0x0, symName: __ZNSt3__116allocator_traitsINS_9allocatorIP8TreeNodeEEE7destroyB7v160006IS3_vEEvRS4_PT_, symObjAddr: 0x1E50, symBinAddr: 0x100002DD4, symSize: 0x2C }
  - { offsetInCU: 0x1113D, offset: 0x1113D, size: 0x8, addend: 0x0, symName: __ZNKSt3__116__deque_iteratorIP8TreeNodePS2_RS2_PS3_lLl512EEdeB7v160006Ev, symObjAddr: 0x1E7C, symBinAddr: 0x100002E00, symSize: 0x18 }
  - { offsetInCU: 0x11163, offset: 0x11163, size: 0x8, addend: 0x0, symName: __ZNSt3__116__deque_iteratorIP8TreeNodePS2_RS2_PS3_lLl512EEppB7v160006Ev, symObjAddr: 0x1E94, symBinAddr: 0x100002E18, symSize: 0x70 }
  - { offsetInCU: 0x11189, offset: 0x11189, size: 0x8, addend: 0x0, symName: __ZNSt3__15dequeIP8TreeNodeNS_9allocatorIS2_EEE6__sizeB7v160006Ev, symObjAddr: 0x1F04, symBinAddr: 0x100002E88, symSize: 0x28 }
  - { offsetInCU: 0x111AF, offset: 0x111AF, size: 0x8, addend: 0x0, symName: __ZNKSt3__114__split_bufferIPP8TreeNodeNS_9allocatorIS3_EEE4sizeB7v160006Ev, symObjAddr: 0x1F2C, symBinAddr: 0x100002EB0, symSize: 0x28 }
  - { offsetInCU: 0x111D5, offset: 0x111D5, size: 0x8, addend: 0x0, symName: __ZNSt3__114__split_bufferIPP8TreeNodeNS_9allocatorIS3_EEE5frontB7v160006Ev, symObjAddr: 0x1F54, symBinAddr: 0x100002ED8, symSize: 0x18 }
  - { offsetInCU: 0x111FB, offset: 0x111FB, size: 0x8, addend: 0x0, symName: __ZNSt3__114__split_bufferIPP8TreeNodeNS_9allocatorIS3_EEE9pop_frontB7v160006Ev, symObjAddr: 0x1F6C, symBinAddr: 0x100002EF0, symSize: 0x2C }
  - { offsetInCU: 0x11221, offset: 0x11221, size: 0x8, addend: 0x0, symName: __ZNKSt3__114__split_bufferIPP8TreeNodeNS_9allocatorIS3_EEE5emptyB7v160006Ev, symObjAddr: 0x1F98, symBinAddr: 0x100002F1C, symSize: 0x28 }
  - { offsetInCU: 0x11247, offset: 0x11247, size: 0x8, addend: 0x0, symName: __ZNSt3__116__deque_iteratorIP8TreeNodePS2_RS2_PS3_lLl512EEC1B7v160006ES5_S3_, symObjAddr: 0x1FC0, symBinAddr: 0x100002F44, symSize: 0x3C }
  - { offsetInCU: 0x1128F, offset: 0x1128F, size: 0x8, addend: 0x0, symName: __ZNSt3__116__deque_iteratorIP8TreeNodePS2_RS2_PS3_lLl512EEC2B7v160006ES5_S3_, symObjAddr: 0x1FFC, symBinAddr: 0x100002F80, symSize: 0x2C }
  - { offsetInCU: 0x112D7, offset: 0x112D7, size: 0x8, addend: 0x0, symName: __ZNKSt3__15dequeIP8TreeNodeNS_9allocatorIS2_EEE4sizeB7v160006Ev, symObjAddr: 0x2028, symBinAddr: 0x100002FAC, symSize: 0x28 }
  - { offsetInCU: 0x112FD, offset: 0x112FD, size: 0x8, addend: 0x0, symName: __ZNKSt3__15dequeIP8TreeNodeNS_9allocatorIS2_EEE6__sizeB7v160006Ev, symObjAddr: 0x2050, symBinAddr: 0x100002FD4, symSize: 0x28 }
  - { offsetInCU: 0x11323, offset: 0x11323, size: 0x8, addend: 0x0, symName: __ZNKSt3__117__compressed_pairImNS_9allocatorIP8TreeNodeEEE5firstB7v160006Ev, symObjAddr: 0x2078, symBinAddr: 0x100002FFC, symSize: 0x24 }
  - { offsetInCU: 0x11349, offset: 0x11349, size: 0x8, addend: 0x0, symName: __ZNSt3__19allocatorIP8TreeNodeE7destroyB7v160006EPS2_, symObjAddr: 0x20CC, symBinAddr: 0x100003050, symSize: 0x14 }
  - { offsetInCU: 0x1137D, offset: 0x1137D, size: 0x8, addend: 0x0, symName: __ZNSt3__117__compressed_pairImNS_9allocatorIP8TreeNodeEEE5firstB7v160006Ev, symObjAddr: 0x20E0, symBinAddr: 0x100003064, symSize: 0x24 }
  - { offsetInCU: 0x113A3, offset: 0x113A3, size: 0x8, addend: 0x0, symName: __ZNSt3__114__split_bufferIPP8TreeNodeNS_9allocatorIS3_EEE19__destruct_at_beginB7v160006EPS3_, symObjAddr: 0x2104, symBinAddr: 0x100003088, symSize: 0x2C }
  - { offsetInCU: 0x113D7, offset: 0x113D7, size: 0x8, addend: 0x0, symName: __ZNSt3__114__split_bufferIPP8TreeNodeNS_9allocatorIS3_EEE19__destruct_at_beginEPS3_NS_17integral_constantIbLb1EEE, symObjAddr: 0x2130, symBinAddr: 0x1000030B4, symSize: 0x20 }
  - { offsetInCU: 0x11417, offset: 0x11417, size: 0x8, addend: 0x0, symName: __ZNSt3__19allocatorIP8TreeNodeE10deallocateB7v160006EPS2_m, symObjAddr: 0x2150, symBinAddr: 0x1000030D4, symSize: 0x70 }
  - { offsetInCU: 0x11459, offset: 0x11459, size: 0x8, addend: 0x0, symName: __ZNSt3__117__compressed_pairImNS_9allocatorIP8TreeNodeEEE6secondB7v160006Ev, symObjAddr: 0x21C0, symBinAddr: 0x100003144, symSize: 0x24 }
  - { offsetInCU: 0x1147F, offset: 0x1147F, size: 0x8, addend: 0x0, symName: __ZNSt3__122__compressed_pair_elemINS_9allocatorIP8TreeNodeEELi1ELb1EE5__getB7v160006Ev, symObjAddr: 0x21E4, symBinAddr: 0x100003168, symSize: 0x14 }
  - { offsetInCU: 0x114A5, offset: 0x114A5, size: 0x8, addend: 0x0, symName: __ZNSt3__114__split_bufferIPP8TreeNodeNS_9allocatorIS3_EEED2Ev, symObjAddr: 0x21F8, symBinAddr: 0x10000317C, symSize: 0x80 }
  - { offsetInCU: 0x114D1, offset: 0x114D1, size: 0x8, addend: 0x0, symName: __ZNSt3__114__split_bufferIPP8TreeNodeNS_9allocatorIS3_EEE5clearB7v160006Ev, symObjAddr: 0x2278, symBinAddr: 0x1000031FC, symSize: 0x28 }
  - { offsetInCU: 0x114F7, offset: 0x114F7, size: 0x8, addend: 0x0, symName: __ZNSt3__116allocator_traitsINS_9allocatorIPP8TreeNodeEEE10deallocateB7v160006ERS5_PS4_m, symObjAddr: 0x22A0, symBinAddr: 0x100003224, symSize: 0x34 }
  - { offsetInCU: 0x11539, offset: 0x11539, size: 0x8, addend: 0x0, symName: __ZNSt3__114__split_bufferIPP8TreeNodeNS_9allocatorIS3_EEE7__allocB7v160006Ev, symObjAddr: 0x22D4, symBinAddr: 0x100003258, symSize: 0x28 }
  - { offsetInCU: 0x1155F, offset: 0x1155F, size: 0x8, addend: 0x0, symName: __ZNKSt3__114__split_bufferIPP8TreeNodeNS_9allocatorIS3_EEE8capacityB7v160006Ev, symObjAddr: 0x22FC, symBinAddr: 0x100003280, symSize: 0x40 }
  - { offsetInCU: 0x11585, offset: 0x11585, size: 0x8, addend: 0x0, symName: __ZNSt3__114__split_bufferIPP8TreeNodeNS_9allocatorIS3_EEE17__destruct_at_endB7v160006EPS3_, symObjAddr: 0x233C, symBinAddr: 0x1000032C0, symSize: 0x2C }
  - { offsetInCU: 0x115B9, offset: 0x115B9, size: 0x8, addend: 0x0, symName: __ZNSt3__114__split_bufferIPP8TreeNodeNS_9allocatorIS3_EEE17__destruct_at_endB7v160006EPS3_NS_17integral_constantIbLb0EEE, symObjAddr: 0x2368, symBinAddr: 0x1000032EC, symSize: 0x94 }
  - { offsetInCU: 0x115F9, offset: 0x115F9, size: 0x8, addend: 0x0, symName: __ZNSt3__116allocator_traitsINS_9allocatorIPP8TreeNodeEEE7destroyB7v160006IS4_vEEvRS5_PT_, symObjAddr: 0x23FC, symBinAddr: 0x100003380, symSize: 0x2C }
  - { offsetInCU: 0x11636, offset: 0x11636, size: 0x8, addend: 0x0, symName: __ZNSt3__19allocatorIPP8TreeNodeE7destroyB7v160006EPS3_, symObjAddr: 0x243C, symBinAddr: 0x1000033C0, symSize: 0x14 }
  - { offsetInCU: 0x1166A, offset: 0x1166A, size: 0x8, addend: 0x0, symName: __ZNSt3__19allocatorIPP8TreeNodeE10deallocateB7v160006EPS3_m, symObjAddr: 0x2450, symBinAddr: 0x1000033D4, symSize: 0x70 }
  - { offsetInCU: 0x116AC, offset: 0x116AC, size: 0x8, addend: 0x0, symName: __ZNSt3__117__compressed_pairIPPP8TreeNodeNS_9allocatorIS3_EEE6secondB7v160006Ev, symObjAddr: 0x24C0, symBinAddr: 0x100003444, symSize: 0x24 }
  - { offsetInCU: 0x116D2, offset: 0x116D2, size: 0x8, addend: 0x0, symName: __ZNSt3__122__compressed_pair_elemINS_9allocatorIPP8TreeNodeEELi1ELb1EE5__getB7v160006Ev, symObjAddr: 0x24E4, symBinAddr: 0x100003468, symSize: 0x14 }
  - { offsetInCU: 0x116F8, offset: 0x116F8, size: 0x8, addend: 0x0, symName: __ZNKSt3__114__split_bufferIPP8TreeNodeNS_9allocatorIS3_EEE9__end_capB7v160006Ev, symObjAddr: 0x24F8, symBinAddr: 0x10000347C, symSize: 0x28 }
  - { offsetInCU: 0x1171E, offset: 0x1171E, size: 0x8, addend: 0x0, symName: __ZNKSt3__117__compressed_pairIPPP8TreeNodeNS_9allocatorIS3_EEE5firstB7v160006Ev, symObjAddr: 0x2520, symBinAddr: 0x1000034A4, symSize: 0x24 }
  - { offsetInCU: 0x11744, offset: 0x11744, size: 0x8, addend: 0x0, symName: __ZNKSt3__122__compressed_pair_elemIPPP8TreeNodeLi0ELb0EE5__getB7v160006Ev, symObjAddr: 0x2544, symBinAddr: 0x1000034C8, symSize: 0x14 }
  - { offsetInCU: 0x1176A, offset: 0x1176A, size: 0x8, addend: 0x0, symName: __ZN8TreeNodeC1Ei, symObjAddr: 0x2558, symBinAddr: 0x1000034DC, symSize: 0x34 }
  - { offsetInCU: 0x117A2, offset: 0x117A2, size: 0x8, addend: 0x0, symName: __ZN8TreeNodeC2Ei, symObjAddr: 0x258C, symBinAddr: 0x100003510, symSize: 0x28 }
  - { offsetInCU: 0x117DA, offset: 0x117DA, size: 0x8, addend: 0x0, symName: __ZNSt3__16vectorIiNS_9allocatorIiEEEC2Em, symObjAddr: 0x25B4, symBinAddr: 0x100003538, symSize: 0xE8 }
  - { offsetInCU: 0x11834, offset: 0x11834, size: 0x8, addend: 0x0, symName: __ZNSt3__117__compressed_pairIPiNS_9allocatorIiEEEC1B7v160006IDnNS_18__default_init_tagEEEOT_OT0_, symObjAddr: 0x269C, symBinAddr: 0x100003620, symSize: 0x3C }
  - { offsetInCU: 0x1188C, offset: 0x1188C, size: 0x8, addend: 0x0, symName: __ZNSt3__16vectorIiNS_9allocatorIiEEE16__destroy_vectorC1ERS3_, symObjAddr: 0x2718, symBinAddr: 0x10000369C, symSize: 0x34 }
  - { offsetInCU: 0x118C5, offset: 0x118C5, size: 0x8, addend: 0x0, symName: __ZNSt3__16vectorIiNS_9allocatorIiEEE11__vallocateB7v160006Em, symObjAddr: 0x275C, symBinAddr: 0x1000036E0, symSize: 0xAC }
  - { offsetInCU: 0x11909, offset: 0x11909, size: 0x8, addend: 0x0, symName: __ZNSt3__16vectorIiNS_9allocatorIiEEE18__construct_at_endEm, symObjAddr: 0x2808, symBinAddr: 0x10000378C, symSize: 0xD0 }
  - { offsetInCU: 0x1197C, offset: 0x1197C, size: 0x8, addend: 0x0, symName: __ZNSt3__128__exception_guard_exceptionsINS_6vectorIiNS_9allocatorIiEEE16__destroy_vectorEE10__completeB7v160006Ev, symObjAddr: 0x28D8, symBinAddr: 0x10000385C, symSize: 0x1C }
  - { offsetInCU: 0x119A2, offset: 0x119A2, size: 0x8, addend: 0x0, symName: __ZNSt3__128__exception_guard_exceptionsINS_6vectorIiNS_9allocatorIiEEE16__destroy_vectorEED1B7v160006Ev, symObjAddr: 0x28F4, symBinAddr: 0x100003878, symSize: 0x2C }
  - { offsetInCU: 0x119CC, offset: 0x119CC, size: 0x8, addend: 0x0, symName: __ZNSt3__117__compressed_pairIPiNS_9allocatorIiEEEC2B7v160006IDnNS_18__default_init_tagEEEOT_OT0_, symObjAddr: 0x2920, symBinAddr: 0x1000038A4, symSize: 0x40 }
  - { offsetInCU: 0x11A24, offset: 0x11A24, size: 0x8, addend: 0x0, symName: __ZNSt3__122__compressed_pair_elemIPiLi0ELb0EEC2B7v160006IDnvEEOT_, symObjAddr: 0x2960, symBinAddr: 0x1000038E4, symSize: 0x1C }
  - { offsetInCU: 0x11A66, offset: 0x11A66, size: 0x8, addend: 0x0, symName: __ZNSt3__122__compressed_pair_elemINS_9allocatorIiEELi1ELb1EEC2B7v160006ENS_18__default_init_tagE, symObjAddr: 0x297C, symBinAddr: 0x100003900, symSize: 0x2C }
  - { offsetInCU: 0x11A9A, offset: 0x11A9A, size: 0x8, addend: 0x0, symName: __ZNSt3__19allocatorIiEC2B7v160006Ev, symObjAddr: 0x29A8, symBinAddr: 0x10000392C, symSize: 0x2C }
  - { offsetInCU: 0x11AC4, offset: 0x11AC4, size: 0x8, addend: 0x0, symName: __ZNSt3__116__non_trivial_ifILb1ENS_9allocatorIiEEEC2B7v160006Ev, symObjAddr: 0x29D4, symBinAddr: 0x100003958, symSize: 0x14 }
  - { offsetInCU: 0x11AEE, offset: 0x11AEE, size: 0x8, addend: 0x0, symName: __ZNSt3__128__exception_guard_exceptionsINS_6vectorIiNS_9allocatorIiEEE16__destroy_vectorEEC1B7v160006ES5_, symObjAddr: 0x29E8, symBinAddr: 0x10000396C, symSize: 0x34 }
  - { offsetInCU: 0x11B26, offset: 0x11B26, size: 0x8, addend: 0x0, symName: __ZNSt3__128__exception_guard_exceptionsINS_6vectorIiNS_9allocatorIiEEE16__destroy_vectorEEC2B7v160006ES5_, symObjAddr: 0x2A1C, symBinAddr: 0x1000039A0, symSize: 0x24 }
  - { offsetInCU: 0x11B5E, offset: 0x11B5E, size: 0x8, addend: 0x0, symName: __ZNSt3__16vectorIiNS_9allocatorIiEEE16__destroy_vectorC2ERS3_, symObjAddr: 0x2A40, symBinAddr: 0x1000039C4, symSize: 0x20 }
  - { offsetInCU: 0x11B97, offset: 0x11B97, size: 0x8, addend: 0x0, symName: __ZNKSt3__16vectorIiNS_9allocatorIiEEE8max_sizeEv, symObjAddr: 0x2A60, symBinAddr: 0x1000039E4, symSize: 0x74 }
  - { offsetInCU: 0x11BBF, offset: 0x11BBF, size: 0x8, addend: 0x0, symName: __ZNKSt3__16vectorIiNS_9allocatorIiEEE20__throw_length_errorB7v160006Ev, symObjAddr: 0x2AD4, symBinAddr: 0x100003A58, symSize: 0x1C }
  - { offsetInCU: 0x11BE5, offset: 0x11BE5, size: 0x8, addend: 0x0, symName: __ZNSt3__16vectorIiNS_9allocatorIiEEE7__allocB7v160006Ev, symObjAddr: 0x2B30, symBinAddr: 0x100003AB4, symSize: 0x28 }
  - { offsetInCU: 0x11C0B, offset: 0x11C0B, size: 0x8, addend: 0x0, symName: __ZNSt3__16vectorIiNS_9allocatorIiEEE9__end_capB7v160006Ev, symObjAddr: 0x2B58, symBinAddr: 0x100003ADC, symSize: 0x28 }
  - { offsetInCU: 0x11C31, offset: 0x11C31, size: 0x8, addend: 0x0, symName: __ZNKSt3__16vectorIiNS_9allocatorIiEEE14__annotate_newB7v160006Em, symObjAddr: 0x2B80, symBinAddr: 0x100003B04, symSize: 0xAC }
  - { offsetInCU: 0x11C70, offset: 0x11C70, size: 0x8, addend: 0x0, symName: __ZNSt3__116allocator_traitsINS_9allocatorIiEEE8max_sizeB7v160006IS2_vEEmRKS2_, symObjAddr: 0x2C58, symBinAddr: 0x100003BDC, symSize: 0x24 }
  - { offsetInCU: 0x11C9E, offset: 0x11C9E, size: 0x8, addend: 0x0, symName: __ZNKSt3__16vectorIiNS_9allocatorIiEEE7__allocB7v160006Ev, symObjAddr: 0x2C7C, symBinAddr: 0x100003C00, symSize: 0x28 }
  - { offsetInCU: 0x11CC4, offset: 0x11CC4, size: 0x8, addend: 0x0, symName: __ZNSt3__114numeric_limitsIlE3maxB7v160006Ev, symObjAddr: 0x2CA4, symBinAddr: 0x100003C28, symSize: 0x14 }
  - { offsetInCU: 0x11CE2, offset: 0x11CE2, size: 0x8, addend: 0x0, symName: __ZNKSt3__16__lessImmEclB7v160006ERKmS3_, symObjAddr: 0x2D0C, symBinAddr: 0x100003C90, symSize: 0x34 }
  - { offsetInCU: 0x11D24, offset: 0x11D24, size: 0x8, addend: 0x0, symName: __ZNKSt3__19allocatorIiE8max_sizeB7v160006Ev, symObjAddr: 0x2D40, symBinAddr: 0x100003CC4, symSize: 0x14 }
  - { offsetInCU: 0x11D4A, offset: 0x11D4A, size: 0x8, addend: 0x0, symName: __ZNKSt3__117__compressed_pairIPiNS_9allocatorIiEEE6secondB7v160006Ev, symObjAddr: 0x2D54, symBinAddr: 0x100003CD8, symSize: 0x24 }
  - { offsetInCU: 0x11D70, offset: 0x11D70, size: 0x8, addend: 0x0, symName: __ZNKSt3__122__compressed_pair_elemINS_9allocatorIiEELi1ELb1EE5__getB7v160006Ev, symObjAddr: 0x2D78, symBinAddr: 0x100003CFC, symSize: 0x14 }
  - { offsetInCU: 0x11D96, offset: 0x11D96, size: 0x8, addend: 0x0, symName: __ZNSt3__123__libcpp_numeric_limitsIlLb1EE3maxB7v160006Ev, symObjAddr: 0x2D8C, symBinAddr: 0x100003D10, symSize: 0x8 }
  - { offsetInCU: 0x11DAA, offset: 0x11DAA, size: 0x8, addend: 0x0, symName: __ZNSt12length_errorC1B7v160006EPKc, symObjAddr: 0x2DF8, symBinAddr: 0x100003D7C, symSize: 0x34 }
  - { offsetInCU: 0x11DE2, offset: 0x11DE2, size: 0x8, addend: 0x0, symName: __ZNSt12length_errorC2B7v160006EPKc, symObjAddr: 0x2E2C, symBinAddr: 0x100003DB0, symSize: 0x4C }
  - { offsetInCU: 0x11E1A, offset: 0x11E1A, size: 0x8, addend: 0x0, symName: __ZNSt3__19allocatorIiE8allocateB7v160006Em, symObjAddr: 0x2E78, symBinAddr: 0x100003DFC, symSize: 0x84 }
  - { offsetInCU: 0x11E4E, offset: 0x11E4E, size: 0x8, addend: 0x0, symName: __ZNSt3__117__compressed_pairIPiNS_9allocatorIiEEE6secondB7v160006Ev, symObjAddr: 0x2F7C, symBinAddr: 0x100003F00, symSize: 0x24 }
  - { offsetInCU: 0x11E74, offset: 0x11E74, size: 0x8, addend: 0x0, symName: __ZNSt3__117__compressed_pairIPiNS_9allocatorIiEEE5firstB7v160006Ev, symObjAddr: 0x2FA0, symBinAddr: 0x100003F24, symSize: 0x24 }
  - { offsetInCU: 0x11E9A, offset: 0x11E9A, size: 0x8, addend: 0x0, symName: __ZNSt3__122__compressed_pair_elemIPiLi0ELb0EE5__getB7v160006Ev, symObjAddr: 0x2FC4, symBinAddr: 0x100003F48, symSize: 0x14 }
  - { offsetInCU: 0x11EC0, offset: 0x11EC0, size: 0x8, addend: 0x0, symName: __ZNKSt3__16vectorIiNS_9allocatorIiEEE31__annotate_contiguous_containerB7v160006EPKvS5_S5_S5_, symObjAddr: 0x2FD8, symBinAddr: 0x100003F5C, symSize: 0x20 }
  - { offsetInCU: 0x11F16, offset: 0x11F16, size: 0x8, addend: 0x0, symName: __ZNKSt3__16vectorIiNS_9allocatorIiEEE4dataB7v160006Ev, symObjAddr: 0x2FF8, symBinAddr: 0x100003F7C, symSize: 0x28 }
  - { offsetInCU: 0x11F3C, offset: 0x11F3C, size: 0x8, addend: 0x0, symName: __ZNKSt3__16vectorIiNS_9allocatorIiEEE8capacityB7v160006Ev, symObjAddr: 0x3020, symBinAddr: 0x100003FA4, symSize: 0x40 }
  - { offsetInCU: 0x11F62, offset: 0x11F62, size: 0x8, addend: 0x0, symName: __ZNKSt3__16vectorIiNS_9allocatorIiEEE9__end_capB7v160006Ev, symObjAddr: 0x3074, symBinAddr: 0x100003FF8, symSize: 0x28 }
  - { offsetInCU: 0x11F88, offset: 0x11F88, size: 0x8, addend: 0x0, symName: __ZNKSt3__117__compressed_pairIPiNS_9allocatorIiEEE5firstB7v160006Ev, symObjAddr: 0x309C, symBinAddr: 0x100004020, symSize: 0x24 }
  - { offsetInCU: 0x11FAE, offset: 0x11FAE, size: 0x8, addend: 0x0, symName: __ZNKSt3__122__compressed_pair_elemIPiLi0ELb0EE5__getB7v160006Ev, symObjAddr: 0x30C0, symBinAddr: 0x100004044, symSize: 0x14 }
  - { offsetInCU: 0x11FED, offset: 0x11FED, size: 0x8, addend: 0x0, symName: __ZNSt3__16vectorIiNS_9allocatorIiEEE21_ConstructTransactionC1B7v160006ERS3_m, symObjAddr: 0x30D4, symBinAddr: 0x100004058, symSize: 0x3C }
  - { offsetInCU: 0x12035, offset: 0x12035, size: 0x8, addend: 0x0, symName: __ZNSt3__116allocator_traitsINS_9allocatorIiEEE9constructB7v160006IiJEvEEvRS2_PT_DpOT0_, symObjAddr: 0x3110, symBinAddr: 0x100004094, symSize: 0x2C }
  - { offsetInCU: 0x12077, offset: 0x12077, size: 0x8, addend: 0x0, symName: __ZNSt3__16vectorIiNS_9allocatorIiEEE21_ConstructTransactionD1B7v160006Ev, symObjAddr: 0x313C, symBinAddr: 0x1000040C0, symSize: 0x2C }
  - { offsetInCU: 0x120A1, offset: 0x120A1, size: 0x8, addend: 0x0, symName: __ZNSt3__16vectorIiNS_9allocatorIiEEE21_ConstructTransactionC2B7v160006ERS3_m, symObjAddr: 0x3168, symBinAddr: 0x1000040EC, symSize: 0x44 }
  - { offsetInCU: 0x120E9, offset: 0x120E9, size: 0x8, addend: 0x0, symName: __ZNSt3__19allocatorIiE9constructB7v160006IiJEEEvPT_DpOT0_, symObjAddr: 0x31AC, symBinAddr: 0x100004130, symSize: 0x1C }
  - { offsetInCU: 0x1212B, offset: 0x1212B, size: 0x8, addend: 0x0, symName: __ZNSt3__16vectorIiNS_9allocatorIiEEE21_ConstructTransactionD2B7v160006Ev, symObjAddr: 0x31C8, symBinAddr: 0x10000414C, symSize: 0x20 }
  - { offsetInCU: 0x12155, offset: 0x12155, size: 0x8, addend: 0x0, symName: __ZNSt3__128__exception_guard_exceptionsINS_6vectorIiNS_9allocatorIiEEE16__destroy_vectorEED2B7v160006Ev, symObjAddr: 0x31E8, symBinAddr: 0x10000416C, symSize: 0x48 }
  - { offsetInCU: 0x1217F, offset: 0x1217F, size: 0x8, addend: 0x0, symName: __ZNSt3__16vectorIiNS_9allocatorIiEEE16__destroy_vectorclB7v160006Ev, symObjAddr: 0x3230, symBinAddr: 0x1000041B4, symSize: 0x9C }
  - { offsetInCU: 0x121A5, offset: 0x121A5, size: 0x8, addend: 0x0, symName: __ZNKSt3__16vectorIiNS_9allocatorIiEEE17__annotate_deleteB7v160006Ev, symObjAddr: 0x32CC, symBinAddr: 0x100004250, symSize: 0xB8 }
  - { offsetInCU: 0x121CB, offset: 0x121CB, size: 0x8, addend: 0x0, symName: __ZNSt3__16vectorIiNS_9allocatorIiEEE7__clearB7v160006Ev, symObjAddr: 0x3394, symBinAddr: 0x100004318, symSize: 0x28 }
  - { offsetInCU: 0x121F1, offset: 0x121F1, size: 0x8, addend: 0x0, symName: __ZNKSt3__16vectorIiNS_9allocatorIiEEE4sizeB7v160006Ev, symObjAddr: 0x33BC, symBinAddr: 0x100004340, symSize: 0x28 }
  - { offsetInCU: 0x12217, offset: 0x12217, size: 0x8, addend: 0x0, symName: __ZNSt3__16vectorIiNS_9allocatorIiEEE22__base_destruct_at_endB7v160006EPi, symObjAddr: 0x33E4, symBinAddr: 0x100004368, symSize: 0xA0 }
  - { offsetInCU: 0x1225B, offset: 0x1225B, size: 0x8, addend: 0x0, symName: __ZNSt3__16vectorIiNS_9allocatorIiEEED2B7v160006Ev, symObjAddr: 0x3484, symBinAddr: 0x100004408, symSize: 0x3C }
  - { offsetInCU: 0x12285, offset: 0x12285, size: 0x8, addend: 0x0, symName: __ZNSt3__15queueIP8TreeNodeNS_5dequeIS2_NS_9allocatorIS2_EEEEEC2B7v160006Ev, symObjAddr: 0x34C0, symBinAddr: 0x100004444, symSize: 0x2C }
  - { offsetInCU: 0x122AF, offset: 0x122AF, size: 0x8, addend: 0x0, symName: __ZNSt3__15dequeIP8TreeNodeNS_9allocatorIS2_EEEC1B7v160006Ev, symObjAddr: 0x34EC, symBinAddr: 0x100004470, symSize: 0x2C }
  - { offsetInCU: 0x122D9, offset: 0x122D9, size: 0x8, addend: 0x0, symName: __ZNSt3__15dequeIP8TreeNodeNS_9allocatorIS2_EEEC2B7v160006Ev, symObjAddr: 0x3518, symBinAddr: 0x10000449C, symSize: 0x78 }
  - { offsetInCU: 0x12303, offset: 0x12303, size: 0x8, addend: 0x0, symName: __ZNSt3__114__split_bufferIPP8TreeNodeNS_9allocatorIS3_EEEC1Ev, symObjAddr: 0x3590, symBinAddr: 0x100004514, symSize: 0x2C }
  - { offsetInCU: 0x12334, offset: 0x12334, size: 0x8, addend: 0x0, symName: __ZNSt3__117__compressed_pairImNS_9allocatorIP8TreeNodeEEEC1B7v160006IiNS_18__default_init_tagEEEOT_OT0_, symObjAddr: 0x35BC, symBinAddr: 0x100004540, symSize: 0x3C }
  - { offsetInCU: 0x1238C, offset: 0x1238C, size: 0x8, addend: 0x0, symName: __ZNSt3__114__split_bufferIPP8TreeNodeNS_9allocatorIS3_EEEC2Ev, symObjAddr: 0x35F8, symBinAddr: 0x10000457C, symSize: 0x48 }
  - { offsetInCU: 0x123B8, offset: 0x123B8, size: 0x8, addend: 0x0, symName: __ZNSt3__117__compressed_pairIPPP8TreeNodeNS_9allocatorIS3_EEEC1B7v160006IDnNS_18__default_init_tagEEEOT_OT0_, symObjAddr: 0x3640, symBinAddr: 0x1000045C4, symSize: 0x3C }
  - { offsetInCU: 0x12410, offset: 0x12410, size: 0x8, addend: 0x0, symName: __ZNSt3__117__compressed_pairIPPP8TreeNodeNS_9allocatorIS3_EEEC2B7v160006IDnNS_18__default_init_tagEEEOT_OT0_, symObjAddr: 0x367C, symBinAddr: 0x100004600, symSize: 0x40 }
  - { offsetInCU: 0x12468, offset: 0x12468, size: 0x8, addend: 0x0, symName: __ZNSt3__122__compressed_pair_elemIPPP8TreeNodeLi0ELb0EEC2B7v160006IDnvEEOT_, symObjAddr: 0x36BC, symBinAddr: 0x100004640, symSize: 0x1C }
  - { offsetInCU: 0x124AA, offset: 0x124AA, size: 0x8, addend: 0x0, symName: __ZNSt3__122__compressed_pair_elemINS_9allocatorIPP8TreeNodeEELi1ELb1EEC2B7v160006ENS_18__default_init_tagE, symObjAddr: 0x36D8, symBinAddr: 0x10000465C, symSize: 0x2C }
  - { offsetInCU: 0x124DE, offset: 0x124DE, size: 0x8, addend: 0x0, symName: __ZNSt3__19allocatorIPP8TreeNodeEC2B7v160006Ev, symObjAddr: 0x3704, symBinAddr: 0x100004688, symSize: 0x2C }
  - { offsetInCU: 0x12508, offset: 0x12508, size: 0x8, addend: 0x0, symName: __ZNSt3__116__non_trivial_ifILb1ENS_9allocatorIPP8TreeNodeEEEC2B7v160006Ev, symObjAddr: 0x3730, symBinAddr: 0x1000046B4, symSize: 0x14 }
  - { offsetInCU: 0x12532, offset: 0x12532, size: 0x8, addend: 0x0, symName: __ZNSt3__117__compressed_pairImNS_9allocatorIP8TreeNodeEEEC2B7v160006IiNS_18__default_init_tagEEEOT_OT0_, symObjAddr: 0x3744, symBinAddr: 0x1000046C8, symSize: 0x40 }
  - { offsetInCU: 0x1258A, offset: 0x1258A, size: 0x8, addend: 0x0, symName: __ZNSt3__122__compressed_pair_elemImLi0ELb0EEC2B7v160006IivEEOT_, symObjAddr: 0x3784, symBinAddr: 0x100004708, symSize: 0x24 }
  - { offsetInCU: 0x125CC, offset: 0x125CC, size: 0x8, addend: 0x0, symName: __ZNSt3__122__compressed_pair_elemINS_9allocatorIP8TreeNodeEELi1ELb1EEC2B7v160006ENS_18__default_init_tagE, symObjAddr: 0x37A8, symBinAddr: 0x10000472C, symSize: 0x2C }
  - { offsetInCU: 0x12600, offset: 0x12600, size: 0x8, addend: 0x0, symName: __ZNSt3__19allocatorIP8TreeNodeEC2B7v160006Ev, symObjAddr: 0x37D4, symBinAddr: 0x100004758, symSize: 0x2C }
  - { offsetInCU: 0x1262A, offset: 0x1262A, size: 0x8, addend: 0x0, symName: __ZNSt3__116__non_trivial_ifILb1ENS_9allocatorIP8TreeNodeEEEC2B7v160006Ev, symObjAddr: 0x3800, symBinAddr: 0x100004784, symSize: 0x14 }
  - { offsetInCU: 0x12654, offset: 0x12654, size: 0x8, addend: 0x0, symName: __ZNSt3__15queueIiNS_5dequeIiNS_9allocatorIiEEEEEC2B7v160006Ev, symObjAddr: 0x3814, symBinAddr: 0x100004798, symSize: 0x2C }
  - { offsetInCU: 0x1267E, offset: 0x1267E, size: 0x8, addend: 0x0, symName: __ZNSt3__15dequeIiNS_9allocatorIiEEEC1B7v160006Ev, symObjAddr: 0x3840, symBinAddr: 0x1000047C4, symSize: 0x2C }
  - { offsetInCU: 0x126A8, offset: 0x126A8, size: 0x8, addend: 0x0, symName: __ZNSt3__15dequeIiNS_9allocatorIiEEEC2B7v160006Ev, symObjAddr: 0x386C, symBinAddr: 0x1000047F0, symSize: 0x78 }
  - { offsetInCU: 0x126D2, offset: 0x126D2, size: 0x8, addend: 0x0, symName: __ZNSt3__114__split_bufferIPiNS_9allocatorIS1_EEEC1Ev, symObjAddr: 0x38E4, symBinAddr: 0x100004868, symSize: 0x2C }
  - { offsetInCU: 0x126FE, offset: 0x126FE, size: 0x8, addend: 0x0, symName: __ZNSt3__117__compressed_pairImNS_9allocatorIiEEEC1B7v160006IiNS_18__default_init_tagEEEOT_OT0_, symObjAddr: 0x3910, symBinAddr: 0x100004894, symSize: 0x3C }
  - { offsetInCU: 0x12756, offset: 0x12756, size: 0x8, addend: 0x0, symName: __ZNSt3__114__split_bufferIPiNS_9allocatorIS1_EEEC2Ev, symObjAddr: 0x394C, symBinAddr: 0x1000048D0, symSize: 0x48 }
  - { offsetInCU: 0x12782, offset: 0x12782, size: 0x8, addend: 0x0, symName: __ZNSt3__117__compressed_pairIPPiNS_9allocatorIS1_EEEC1B7v160006IDnNS_18__default_init_tagEEEOT_OT0_, symObjAddr: 0x3994, symBinAddr: 0x100004918, symSize: 0x3C }
  - { offsetInCU: 0x127DA, offset: 0x127DA, size: 0x8, addend: 0x0, symName: __ZNSt3__117__compressed_pairIPPiNS_9allocatorIS1_EEEC2B7v160006IDnNS_18__default_init_tagEEEOT_OT0_, symObjAddr: 0x39D0, symBinAddr: 0x100004954, symSize: 0x40 }
  - { offsetInCU: 0x12832, offset: 0x12832, size: 0x8, addend: 0x0, symName: __ZNSt3__122__compressed_pair_elemIPPiLi0ELb0EEC2B7v160006IDnvEEOT_, symObjAddr: 0x3A10, symBinAddr: 0x100004994, symSize: 0x1C }
  - { offsetInCU: 0x12874, offset: 0x12874, size: 0x8, addend: 0x0, symName: __ZNSt3__122__compressed_pair_elemINS_9allocatorIPiEELi1ELb1EEC2B7v160006ENS_18__default_init_tagE, symObjAddr: 0x3A2C, symBinAddr: 0x1000049B0, symSize: 0x2C }
  - { offsetInCU: 0x128A8, offset: 0x128A8, size: 0x8, addend: 0x0, symName: __ZNSt3__19allocatorIPiEC2B7v160006Ev, symObjAddr: 0x3A58, symBinAddr: 0x1000049DC, symSize: 0x2C }
  - { offsetInCU: 0x128D2, offset: 0x128D2, size: 0x8, addend: 0x0, symName: __ZNSt3__116__non_trivial_ifILb1ENS_9allocatorIPiEEEC2B7v160006Ev, symObjAddr: 0x3A84, symBinAddr: 0x100004A08, symSize: 0x14 }
  - { offsetInCU: 0x128FC, offset: 0x128FC, size: 0x8, addend: 0x0, symName: __ZNSt3__117__compressed_pairImNS_9allocatorIiEEEC2B7v160006IiNS_18__default_init_tagEEEOT_OT0_, symObjAddr: 0x3A98, symBinAddr: 0x100004A1C, symSize: 0x40 }
  - { offsetInCU: 0x12954, offset: 0x12954, size: 0x8, addend: 0x0, symName: __ZNSt3__15dequeIP8TreeNodeNS_9allocatorIS2_EEE9push_backERKS2_, symObjAddr: 0x3AD8, symBinAddr: 0x100004A5C, symSize: 0xA0 }
  - { offsetInCU: 0x1299A, offset: 0x1299A, size: 0x8, addend: 0x0, symName: __ZNKSt3__15dequeIP8TreeNodeNS_9allocatorIS2_EEE12__back_spareB7v160006Ev, symObjAddr: 0x3B78, symBinAddr: 0x100004AFC, symSize: 0x54 }
  - { offsetInCU: 0x129C0, offset: 0x129C0, size: 0x8, addend: 0x0, symName: __ZNSt3__15dequeIP8TreeNodeNS_9allocatorIS2_EEE19__add_back_capacityEv, symObjAddr: 0x3BCC, symBinAddr: 0x100004B50, symSize: 0x32C }
  - { offsetInCU: 0x12A78, offset: 0x12A78, size: 0x8, addend: 0x0, symName: __ZNSt3__116allocator_traitsINS_9allocatorIP8TreeNodeEEE9constructB7v160006IS3_JRKS3_EvEEvRS4_PT_DpOT0_, symObjAddr: 0x3EF8, symBinAddr: 0x100004E7C, symSize: 0x34 }
  - { offsetInCU: 0x12ACF, offset: 0x12ACF, size: 0x8, addend: 0x0, symName: __ZNKSt3__15dequeIP8TreeNodeNS_9allocatorIS2_EEE10__capacityB7v160006Ev, symObjAddr: 0x3F2C, symBinAddr: 0x100004EB0, symSize: 0x60 }
  - { offsetInCU: 0x12AF5, offset: 0x12AF5, size: 0x8, addend: 0x0, symName: __ZNKSt3__15dequeIP8TreeNodeNS_9allocatorIS2_EEE13__front_spareB7v160006Ev, symObjAddr: 0x3F8C, symBinAddr: 0x100004F10, symSize: 0x18 }
  - { offsetInCU: 0x12B1B, offset: 0x12B1B, size: 0x8, addend: 0x0, symName: __ZNSt3__114__split_bufferIPP8TreeNodeNS_9allocatorIS3_EEE9push_backB7v160006ERKS3_, symObjAddr: 0x3FA4, symBinAddr: 0x100004F28, symSize: 0x270 }
  - { offsetInCU: 0x12B94, offset: 0x12B94, size: 0x8, addend: 0x0, symName: __ZNKSt3__114__split_bufferIPP8TreeNodeNS_9allocatorIS3_EEE12__back_spareB7v160006Ev, symObjAddr: 0x4214, symBinAddr: 0x100005198, symSize: 0x40 }
  - { offsetInCU: 0x12BBA, offset: 0x12BBA, size: 0x8, addend: 0x0, symName: __ZNSt3__114__split_bufferIPP8TreeNodeNS_9allocatorIS3_EEE9push_backEOS3_, symObjAddr: 0x4254, symBinAddr: 0x1000051D8, symSize: 0x270 }
  - { offsetInCU: 0x12C33, offset: 0x12C33, size: 0x8, addend: 0x0, symName: __ZNSt3__116allocator_traitsINS_9allocatorIP8TreeNodeEEE8allocateB7v160006ERS4_m, symObjAddr: 0x44C4, symBinAddr: 0x100005448, symSize: 0x2C }
  - { offsetInCU: 0x12C66, offset: 0x12C66, size: 0x8, addend: 0x0, symName: __ZNSt3__114__split_bufferIPP8TreeNodeNS_9allocatorIS3_EEE10push_frontEOS3_, symObjAddr: 0x44F0, symBinAddr: 0x100005474, symSize: 0x26C }
  - { offsetInCU: 0x12CDF, offset: 0x12CDF, size: 0x8, addend: 0x0, symName: __ZNSt3__114__split_bufferIPP8TreeNodeRNS_9allocatorIS3_EEEC1EmmS6_, symObjAddr: 0x4788, symBinAddr: 0x10000570C, symSize: 0x44 }
  - { offsetInCU: 0x12D3A, offset: 0x12D3A, size: 0x8, addend: 0x0, symName: __ZNSt3__122__allocator_destructorINS_9allocatorIP8TreeNodeEEEC1B7v160006ERS4_m, symObjAddr: 0x47CC, symBinAddr: 0x100005750, symSize: 0x3C }
  - { offsetInCU: 0x12E02, offset: 0x12E02, size: 0x8, addend: 0x0, symName: __ZNSt3__110unique_ptrIPP8TreeNodeNS_22__allocator_destructorINS_9allocatorIS2_EEEEEC1B7v160006ILb1EvEES3_NS_16__dependent_typeINS_27__unique_ptr_deleter_sfinaeIS7_EEXT_EE20__good_rval_ref_typeE, symObjAddr: 0x4808, symBinAddr: 0x10000578C, symSize: 0x3C }
  - { offsetInCU: 0x12E53, offset: 0x12E53, size: 0x8, addend: 0x0, symName: __ZNSt3__114__split_bufferIPP8TreeNodeRNS_9allocatorIS3_EEE9push_backEOS3_, symObjAddr: 0x4844, symBinAddr: 0x1000057C8, symSize: 0x270 }
  - { offsetInCU: 0x12ECC, offset: 0x12ECC, size: 0x8, addend: 0x0, symName: __ZNKSt3__110unique_ptrIPP8TreeNodeNS_22__allocator_destructorINS_9allocatorIS2_EEEEE3getB7v160006Ev, symObjAddr: 0x4AB4, symBinAddr: 0x100005A38, symSize: 0x28 }
  - { offsetInCU: 0x12EF2, offset: 0x12EF2, size: 0x8, addend: 0x0, symName: __ZNSt3__110unique_ptrIPP8TreeNodeNS_22__allocator_destructorINS_9allocatorIS2_EEEEE7releaseB7v160006Ev, symObjAddr: 0x4ADC, symBinAddr: 0x100005A60, symSize: 0x44 }
  - { offsetInCU: 0x12F27, offset: 0x12F27, size: 0x8, addend: 0x0, symName: __ZNSt3__114__split_bufferIPP8TreeNodeRNS_9allocatorIS3_EEE10push_frontERKS3_, symObjAddr: 0x4B20, symBinAddr: 0x100005AA4, symSize: 0x26C }
  - { offsetInCU: 0x12FA0, offset: 0x12FA0, size: 0x8, addend: 0x0, symName: __ZNSt3__114__split_bufferIPP8TreeNodeNS_9allocatorIS3_EEE9__end_capB7v160006Ev, symObjAddr: 0x4DC8, symBinAddr: 0x100005D4C, symSize: 0x28 }
  - { offsetInCU: 0x12FC6, offset: 0x12FC6, size: 0x8, addend: 0x0, symName: __ZNSt3__114__split_bufferIPP8TreeNodeRNS_9allocatorIS3_EEE9__end_capB7v160006Ev, symObjAddr: 0x4DF0, symBinAddr: 0x100005D74, symSize: 0x28 }
  - { offsetInCU: 0x12FEC, offset: 0x12FEC, size: 0x8, addend: 0x0, symName: __ZNSt3__110unique_ptrIPP8TreeNodeNS_22__allocator_destructorINS_9allocatorIS2_EEEEED1B7v160006Ev, symObjAddr: 0x4E18, symBinAddr: 0x100005D9C, symSize: 0x2C }
  - { offsetInCU: 0x13016, offset: 0x13016, size: 0x8, addend: 0x0, symName: __ZNSt3__114__split_bufferIPP8TreeNodeRNS_9allocatorIS3_EEED1Ev, symObjAddr: 0x4E44, symBinAddr: 0x100005DC8, symSize: 0x2C }
  - { offsetInCU: 0x13042, offset: 0x13042, size: 0x8, addend: 0x0, symName: __ZNSt3__114__split_bufferIPP8TreeNodeRNS_9allocatorIS3_EEE18__construct_at_endINS_13move_iteratorIPS3_EEEENS_9enable_ifIXsr27__is_cpp17_forward_iteratorIT_EE5valueEvE4typeESD_SD_, symObjAddr: 0x4EB0, symBinAddr: 0x100005E34, symSize: 0x104 }
  - { offsetInCU: 0x1309E, offset: 0x1309E, size: 0x8, addend: 0x0, symName: __ZNSt3__113move_iteratorIPPP8TreeNodeEC1B7v160006ES4_, symObjAddr: 0x4FB4, symBinAddr: 0x100005F38, symSize: 0x34 }
  - { offsetInCU: 0x130D6, offset: 0x130D6, size: 0x8, addend: 0x0, symName: __ZNSt3__116allocator_traitsINS_9allocatorIPP8TreeNodeEEE9constructB7v160006IS4_JRKS4_EvEEvRS5_PT_DpOT0_, symObjAddr: 0x4FE8, symBinAddr: 0x100005F6C, symSize: 0x34 }
  - { offsetInCU: 0x13150, offset: 0x13150, size: 0x8, addend: 0x0, symName: __ZNKSt3__114__move_trivialclB7v160006IPP8TreeNodeS4_Li0EEENS_4pairIPT_PT0_EES7_S7_S9_, symObjAddr: 0x51C8, symBinAddr: 0x10000614C, symSize: 0x48 }
  - { offsetInCU: 0x131B8, offset: 0x131B8, size: 0x8, addend: 0x0, symName: __ZNSt3__14pairIPPP8TreeNodeS4_EC1B7v160006ERKS4_S7_, symObjAddr: 0x53A4, symBinAddr: 0x100006328, symSize: 0x3C }
  - { offsetInCU: 0x131FE, offset: 0x131FE, size: 0x8, addend: 0x0, symName: __ZNSt3__14pairIPPP8TreeNodeS4_EC2B7v160006ERKS4_S7_, symObjAddr: 0x53E0, symBinAddr: 0x100006364, symSize: 0x34 }
  - { offsetInCU: 0x13244, offset: 0x13244, size: 0x8, addend: 0x0, symName: __ZNSt3__118__unwrap_iter_implIPPP8TreeNodeLb1EE8__unwrapB7v160006ES4_, symObjAddr: 0x5414, symBinAddr: 0x100006398, symSize: 0x24 }
  - { offsetInCU: 0x13267, offset: 0x13267, size: 0x8, addend: 0x0, symName: __ZNSt3__118__unwrap_iter_implIPPP8TreeNodeLb1EE8__rewrapB7v160006ES4_S4_, symObjAddr: 0x5438, symBinAddr: 0x1000063BC, symSize: 0x50 }
  - { offsetInCU: 0x132A2, offset: 0x132A2, size: 0x8, addend: 0x0, symName: __ZNSt3__114__split_bufferIPP8TreeNodeRNS_9allocatorIS3_EEE21_ConstructTransactionC1B7v160006EPPS3_m, symObjAddr: 0x54C4, symBinAddr: 0x100006448, symSize: 0x3C }
  - { offsetInCU: 0x132E8, offset: 0x132E8, size: 0x8, addend: 0x0, symName: __ZNSt3__116allocator_traitsINS_9allocatorIPP8TreeNodeEEE9constructB7v160006IS4_JS4_EvEEvRS5_PT_DpOT0_, symObjAddr: 0x5500, symBinAddr: 0x100006484, symSize: 0x34 }
  - { offsetInCU: 0x1333F, offset: 0x1333F, size: 0x8, addend: 0x0, symName: __ZNSt3__114__split_bufferIPP8TreeNodeRNS_9allocatorIS3_EEE7__allocB7v160006Ev, symObjAddr: 0x5534, symBinAddr: 0x1000064B8, symSize: 0x28 }
  - { offsetInCU: 0x13365, offset: 0x13365, size: 0x8, addend: 0x0, symName: __ZNKSt3__113move_iteratorIPPP8TreeNodeEdeB7v160006Ev, symObjAddr: 0x555C, symBinAddr: 0x1000064E0, symSize: 0x18 }
  - { offsetInCU: 0x1338B, offset: 0x1338B, size: 0x8, addend: 0x0, symName: __ZNSt3__113move_iteratorIPPP8TreeNodeEppB7v160006Ev, symObjAddr: 0x5574, symBinAddr: 0x1000064F8, symSize: 0x20 }
  - { offsetInCU: 0x133B1, offset: 0x133B1, size: 0x8, addend: 0x0, symName: __ZNSt3__114__split_bufferIPP8TreeNodeRNS_9allocatorIS3_EEE21_ConstructTransactionD1B7v160006Ev, symObjAddr: 0x5594, symBinAddr: 0x100006518, symSize: 0x2C }
  - { offsetInCU: 0x133DB, offset: 0x133DB, size: 0x8, addend: 0x0, symName: __ZNKSt3__113move_iteratorIPPP8TreeNodeE4baseB7v160006Ev, symObjAddr: 0x5638, symBinAddr: 0x1000065BC, symSize: 0x18 }
  - { offsetInCU: 0x13401, offset: 0x13401, size: 0x8, addend: 0x0, symName: __ZNSt3__114__split_bufferIPP8TreeNodeRNS_9allocatorIS3_EEE21_ConstructTransactionC2B7v160006EPPS3_m, symObjAddr: 0x5650, symBinAddr: 0x1000065D4, symSize: 0x44 }
  - { offsetInCU: 0x13447, offset: 0x13447, size: 0x8, addend: 0x0, symName: __ZNSt3__19allocatorIPP8TreeNodeE9constructB7v160006IS3_JS3_EEEvPT_DpOT0_, symObjAddr: 0x5694, symBinAddr: 0x100006618, symSize: 0x28 }
  - { offsetInCU: 0x1349D, offset: 0x1349D, size: 0x8, addend: 0x0, symName: __ZNSt3__117__compressed_pairIPPP8TreeNodeRNS_9allocatorIS3_EEE6secondB7v160006Ev, symObjAddr: 0x56BC, symBinAddr: 0x100006640, symSize: 0x28 }
  - { offsetInCU: 0x134C3, offset: 0x134C3, size: 0x8, addend: 0x0, symName: __ZNSt3__122__compressed_pair_elemIRNS_9allocatorIPP8TreeNodeEELi1ELb0EE5__getB7v160006Ev, symObjAddr: 0x56E4, symBinAddr: 0x100006668, symSize: 0x18 }
  - { offsetInCU: 0x134E9, offset: 0x134E9, size: 0x8, addend: 0x0, symName: __ZNSt3__114__split_bufferIPP8TreeNodeRNS_9allocatorIS3_EEE21_ConstructTransactionD2B7v160006Ev, symObjAddr: 0x56FC, symBinAddr: 0x100006680, symSize: 0x20 }
  - { offsetInCU: 0x13513, offset: 0x13513, size: 0x8, addend: 0x0, symName: __ZNSt3__113move_iteratorIPPP8TreeNodeEC2B7v160006ES4_, symObjAddr: 0x571C, symBinAddr: 0x1000066A0, symSize: 0x20 }
  - { offsetInCU: 0x1354B, offset: 0x1354B, size: 0x8, addend: 0x0, symName: __ZNSt3__19allocatorIPP8TreeNodeE9constructB7v160006IS3_JRKS3_EEEvPT_DpOT0_, symObjAddr: 0x573C, symBinAddr: 0x1000066C0, symSize: 0x28 }
  - { offsetInCU: 0x135A1, offset: 0x135A1, size: 0x8, addend: 0x0, symName: __ZNSt3__19allocatorIP8TreeNodeE8allocateB7v160006Em, symObjAddr: 0x5764, symBinAddr: 0x1000066E8, symSize: 0x84 }
  - { offsetInCU: 0x135DF, offset: 0x135DF, size: 0x8, addend: 0x0, symName: __ZNSt3__116allocator_traitsINS_9allocatorIP8TreeNodeEEE8max_sizeB7v160006IS4_vEEmRKS4_, symObjAddr: 0x57E8, symBinAddr: 0x10000676C, symSize: 0x24 }
  - { offsetInCU: 0x1360D, offset: 0x1360D, size: 0x8, addend: 0x0, symName: __ZNKSt3__19allocatorIP8TreeNodeE8max_sizeB7v160006Ev, symObjAddr: 0x580C, symBinAddr: 0x100006790, symSize: 0x14 }
  - { offsetInCU: 0x1363D, offset: 0x1363D, size: 0x8, addend: 0x0, symName: __ZNKSt3__123__move_backward_trivialclB7v160006IPP8TreeNodeS4_Li0EEENS_4pairIPT_PT0_EES7_S7_S9_, symObjAddr: 0x59AC, symBinAddr: 0x100006930, symSize: 0x48 }
  - { offsetInCU: 0x136A5, offset: 0x136A5, size: 0x8, addend: 0x0, symName: __ZNSt3__114__split_bufferIPP8TreeNodeRNS_9allocatorIS3_EEEC2EmmS6_, symObjAddr: 0x5B14, symBinAddr: 0x100006A98, symSize: 0xD4 }
  - { offsetInCU: 0x13719, offset: 0x13719, size: 0x8, addend: 0x0, symName: __ZNSt3__117__compressed_pairIPPP8TreeNodeRNS_9allocatorIS3_EEEC1B7v160006IDnS7_EEOT_OT0_, symObjAddr: 0x5BE8, symBinAddr: 0x100006B6C, symSize: 0x3C }
  - { offsetInCU: 0x13771, offset: 0x13771, size: 0x8, addend: 0x0, symName: __ZNSt3__117__compressed_pairIPPP8TreeNodeRNS_9allocatorIS3_EEEC2B7v160006IDnS7_EEOT_OT0_, symObjAddr: 0x5C64, symBinAddr: 0x100006BE8, symSize: 0x48 }
  - { offsetInCU: 0x137C9, offset: 0x137C9, size: 0x8, addend: 0x0, symName: __ZNSt3__122__compressed_pair_elemIRNS_9allocatorIPP8TreeNodeEELi1ELb0EEC2B7v160006IS6_vEEOT_, symObjAddr: 0x5CAC, symBinAddr: 0x100006C30, symSize: 0x20 }
  - { offsetInCU: 0x1380B, offset: 0x1380B, size: 0x8, addend: 0x0, symName: __ZNSt3__19allocatorIPP8TreeNodeE8allocateB7v160006Em, symObjAddr: 0x5CCC, symBinAddr: 0x100006C50, symSize: 0x84 }
  - { offsetInCU: 0x13849, offset: 0x13849, size: 0x8, addend: 0x0, symName: __ZNSt3__116allocator_traitsINS_9allocatorIPP8TreeNodeEEE8max_sizeB7v160006IS5_vEEmRKS5_, symObjAddr: 0x5D50, symBinAddr: 0x100006CD4, symSize: 0x24 }
  - { offsetInCU: 0x13877, offset: 0x13877, size: 0x8, addend: 0x0, symName: __ZNKSt3__19allocatorIPP8TreeNodeE8max_sizeB7v160006Ev, symObjAddr: 0x5D74, symBinAddr: 0x100006CF8, symSize: 0x14 }
  - { offsetInCU: 0x1389D, offset: 0x1389D, size: 0x8, addend: 0x0, symName: __ZNSt3__122__allocator_destructorINS_9allocatorIP8TreeNodeEEEC2B7v160006ERS4_m, symObjAddr: 0x5D88, symBinAddr: 0x100006D0C, symSize: 0x2C }
  - { offsetInCU: 0x138E3, offset: 0x138E3, size: 0x8, addend: 0x0, symName: __ZNSt3__110unique_ptrIPP8TreeNodeNS_22__allocator_destructorINS_9allocatorIS2_EEEEEC2B7v160006ILb1EvEES3_NS_16__dependent_typeINS_27__unique_ptr_deleter_sfinaeIS7_EEXT_EE20__good_rval_ref_typeE, symObjAddr: 0x5DB4, symBinAddr: 0x100006D38, symSize: 0x5C }
  - { offsetInCU: 0x13934, offset: 0x13934, size: 0x8, addend: 0x0, symName: __ZNSt3__117__compressed_pairIPP8TreeNodeNS_22__allocator_destructorINS_9allocatorIS2_EEEEEC1B7v160006IRS3_S7_EEOT_OT0_, symObjAddr: 0x5E10, symBinAddr: 0x100006D94, symSize: 0x3C }
  - { offsetInCU: 0x1398C, offset: 0x1398C, size: 0x8, addend: 0x0, symName: __ZNSt3__117__compressed_pairIPP8TreeNodeNS_22__allocator_destructorINS_9allocatorIS2_EEEEEC2B7v160006IRS3_S7_EEOT_OT0_, symObjAddr: 0x5E4C, symBinAddr: 0x100006DD0, symSize: 0x48 }
  - { offsetInCU: 0x139E4, offset: 0x139E4, size: 0x8, addend: 0x0, symName: __ZNSt3__122__compressed_pair_elemIPP8TreeNodeLi0ELb0EEC2B7v160006IRS3_vEEOT_, symObjAddr: 0x5E94, symBinAddr: 0x100006E18, symSize: 0x24 }
  - { offsetInCU: 0x13A26, offset: 0x13A26, size: 0x8, addend: 0x0, symName: __ZNSt3__122__compressed_pair_elemINS_22__allocator_destructorINS_9allocatorIP8TreeNodeEEEELi1ELb0EEC2B7v160006IS6_vEEOT_, symObjAddr: 0x5EB8, symBinAddr: 0x100006E3C, symSize: 0x24 }
  - { offsetInCU: 0x13A68, offset: 0x13A68, size: 0x8, addend: 0x0, symName: __ZNKSt3__117__compressed_pairIPP8TreeNodeNS_22__allocator_destructorINS_9allocatorIS2_EEEEE5firstB7v160006Ev, symObjAddr: 0x5EDC, symBinAddr: 0x100006E60, symSize: 0x24 }
  - { offsetInCU: 0x13A8E, offset: 0x13A8E, size: 0x8, addend: 0x0, symName: __ZNKSt3__122__compressed_pair_elemIPP8TreeNodeLi0ELb0EE5__getB7v160006Ev, symObjAddr: 0x5F00, symBinAddr: 0x100006E84, symSize: 0x14 }
  - { offsetInCU: 0x13AB4, offset: 0x13AB4, size: 0x8, addend: 0x0, symName: __ZNSt3__117__compressed_pairIPP8TreeNodeNS_22__allocator_destructorINS_9allocatorIS2_EEEEE5firstB7v160006Ev, symObjAddr: 0x5F14, symBinAddr: 0x100006E98, symSize: 0x24 }
  - { offsetInCU: 0x13ADA, offset: 0x13ADA, size: 0x8, addend: 0x0, symName: __ZNSt3__122__compressed_pair_elemIPP8TreeNodeLi0ELb0EE5__getB7v160006Ev, symObjAddr: 0x5F38, symBinAddr: 0x100006EBC, symSize: 0x14 }
  - { offsetInCU: 0x13B00, offset: 0x13B00, size: 0x8, addend: 0x0, symName: __ZNSt3__117__compressed_pairIPPP8TreeNodeNS_9allocatorIS3_EEE5firstB7v160006Ev, symObjAddr: 0x5F4C, symBinAddr: 0x100006ED0, symSize: 0x24 }
  - { offsetInCU: 0x13B26, offset: 0x13B26, size: 0x8, addend: 0x0, symName: __ZNSt3__122__compressed_pair_elemIPPP8TreeNodeLi0ELb0EE5__getB7v160006Ev, symObjAddr: 0x5F70, symBinAddr: 0x100006EF4, symSize: 0x14 }
  - { offsetInCU: 0x13B4C, offset: 0x13B4C, size: 0x8, addend: 0x0, symName: __ZNSt3__117__compressed_pairIPPP8TreeNodeRNS_9allocatorIS3_EEE5firstB7v160006Ev, symObjAddr: 0x5F84, symBinAddr: 0x100006F08, symSize: 0x24 }
  - { offsetInCU: 0x13B72, offset: 0x13B72, size: 0x8, addend: 0x0, symName: __ZNSt3__110unique_ptrIPP8TreeNodeNS_22__allocator_destructorINS_9allocatorIS2_EEEEED2B7v160006Ev, symObjAddr: 0x5FA8, symBinAddr: 0x100006F2C, symSize: 0x30 }
  - { offsetInCU: 0x13B9C, offset: 0x13B9C, size: 0x8, addend: 0x0, symName: __ZNSt3__110unique_ptrIPP8TreeNodeNS_22__allocator_destructorINS_9allocatorIS2_EEEEE5resetB7v160006ES3_, symObjAddr: 0x5FD8, symBinAddr: 0x100006F5C, symSize: 0x78 }
  - { offsetInCU: 0x13BE0, offset: 0x13BE0, size: 0x8, addend: 0x0, symName: __ZNSt3__117__compressed_pairIPP8TreeNodeNS_22__allocator_destructorINS_9allocatorIS2_EEEEE6secondB7v160006Ev, symObjAddr: 0x6050, symBinAddr: 0x100006FD4, symSize: 0x28 }
  - { offsetInCU: 0x13C06, offset: 0x13C06, size: 0x8, addend: 0x0, symName: __ZNSt3__122__allocator_destructorINS_9allocatorIP8TreeNodeEEEclB7v160006EPS3_, symObjAddr: 0x6078, symBinAddr: 0x100006FFC, symSize: 0x34 }
  - { offsetInCU: 0x13C3A, offset: 0x13C3A, size: 0x8, addend: 0x0, symName: __ZNSt3__122__compressed_pair_elemINS_22__allocator_destructorINS_9allocatorIP8TreeNodeEEEELi1ELb0EE5__getB7v160006Ev, symObjAddr: 0x60AC, symBinAddr: 0x100007030, symSize: 0x14 }
  - { offsetInCU: 0x13C60, offset: 0x13C60, size: 0x8, addend: 0x0, symName: __ZNSt3__114__split_bufferIPP8TreeNodeRNS_9allocatorIS3_EEED2Ev, symObjAddr: 0x60C0, symBinAddr: 0x100007044, symSize: 0x80 }
  - { offsetInCU: 0x13C8C, offset: 0x13C8C, size: 0x8, addend: 0x0, symName: __ZNSt3__114__split_bufferIPP8TreeNodeRNS_9allocatorIS3_EEE5clearB7v160006Ev, symObjAddr: 0x6140, symBinAddr: 0x1000070C4, symSize: 0x28 }
  - { offsetInCU: 0x13CB2, offset: 0x13CB2, size: 0x8, addend: 0x0, symName: __ZNKSt3__114__split_bufferIPP8TreeNodeRNS_9allocatorIS3_EEE8capacityB7v160006Ev, symObjAddr: 0x6168, symBinAddr: 0x1000070EC, symSize: 0x40 }
  - { offsetInCU: 0x13CD8, offset: 0x13CD8, size: 0x8, addend: 0x0, symName: __ZNSt3__114__split_bufferIPP8TreeNodeRNS_9allocatorIS3_EEE17__destruct_at_endB7v160006EPS3_, symObjAddr: 0x61A8, symBinAddr: 0x10000712C, symSize: 0x2C }
  - { offsetInCU: 0x13D0C, offset: 0x13D0C, size: 0x8, addend: 0x0, symName: __ZNSt3__114__split_bufferIPP8TreeNodeRNS_9allocatorIS3_EEE17__destruct_at_endB7v160006EPS3_NS_17integral_constantIbLb0EEE, symObjAddr: 0x61D4, symBinAddr: 0x100007158, symSize: 0x94 }
  - { offsetInCU: 0x13D4C, offset: 0x13D4C, size: 0x8, addend: 0x0, symName: __ZNKSt3__114__split_bufferIPP8TreeNodeRNS_9allocatorIS3_EEE9__end_capB7v160006Ev, symObjAddr: 0x6268, symBinAddr: 0x1000071EC, symSize: 0x28 }
  - { offsetInCU: 0x13D72, offset: 0x13D72, size: 0x8, addend: 0x0, symName: __ZNKSt3__117__compressed_pairIPPP8TreeNodeRNS_9allocatorIS3_EEE5firstB7v160006Ev, symObjAddr: 0x6290, symBinAddr: 0x100007214, symSize: 0x24 }
  - { offsetInCU: 0x13D98, offset: 0x13D98, size: 0x8, addend: 0x0, symName: __ZNSt3__19allocatorIP8TreeNodeE9constructB7v160006IS2_JRKS2_EEEvPT_DpOT0_, symObjAddr: 0x62B4, symBinAddr: 0x100007238, symSize: 0x28 }
  - { offsetInCU: 0x13DEE, offset: 0x13DEE, size: 0x8, addend: 0x0, symName: __ZNSt3__15dequeIiNS_9allocatorIiEEE9push_backERKi, symObjAddr: 0x62DC, symBinAddr: 0x100007260, symSize: 0xA0 }
  - { offsetInCU: 0x13E34, offset: 0x13E34, size: 0x8, addend: 0x0, symName: __ZNKSt3__15dequeIiNS_9allocatorIiEEE12__back_spareB7v160006Ev, symObjAddr: 0x637C, symBinAddr: 0x100007300, symSize: 0x54 }
  - { offsetInCU: 0x13E5A, offset: 0x13E5A, size: 0x8, addend: 0x0, symName: __ZNSt3__15dequeIiNS_9allocatorIiEEE19__add_back_capacityEv, symObjAddr: 0x63D0, symBinAddr: 0x100007354, symSize: 0x32C }
  - { offsetInCU: 0x13F12, offset: 0x13F12, size: 0x8, addend: 0x0, symName: __ZNSt3__116allocator_traitsINS_9allocatorIiEEE9constructB7v160006IiJRKiEvEEvRS2_PT_DpOT0_, symObjAddr: 0x66FC, symBinAddr: 0x100007680, symSize: 0x34 }
  - { offsetInCU: 0x13F69, offset: 0x13F69, size: 0x8, addend: 0x0, symName: __ZNKSt3__15dequeIiNS_9allocatorIiEEE10__capacityB7v160006Ev, symObjAddr: 0x6730, symBinAddr: 0x1000076B4, symSize: 0x60 }
  - { offsetInCU: 0x13F8F, offset: 0x13F8F, size: 0x8, addend: 0x0, symName: __ZNKSt3__15dequeIiNS_9allocatorIiEEE13__front_spareB7v160006Ev, symObjAddr: 0x6790, symBinAddr: 0x100007714, symSize: 0x18 }
  - { offsetInCU: 0x13FB5, offset: 0x13FB5, size: 0x8, addend: 0x0, symName: __ZNSt3__114__split_bufferIPiNS_9allocatorIS1_EEE9push_backB7v160006ERKS1_, symObjAddr: 0x67A8, symBinAddr: 0x10000772C, symSize: 0x270 }
  - { offsetInCU: 0x1402E, offset: 0x1402E, size: 0x8, addend: 0x0, symName: __ZNKSt3__114__split_bufferIPiNS_9allocatorIS1_EEE12__back_spareB7v160006Ev, symObjAddr: 0x6A18, symBinAddr: 0x10000799C, symSize: 0x40 }
  - { offsetInCU: 0x14054, offset: 0x14054, size: 0x8, addend: 0x0, symName: __ZNSt3__114__split_bufferIPiNS_9allocatorIS1_EEE9push_backEOS1_, symObjAddr: 0x6A58, symBinAddr: 0x1000079DC, symSize: 0x270 }
  - { offsetInCU: 0x140CD, offset: 0x140CD, size: 0x8, addend: 0x0, symName: __ZNSt3__116allocator_traitsINS_9allocatorIiEEE8allocateB7v160006ERS2_m, symObjAddr: 0x6CC8, symBinAddr: 0x100007C4C, symSize: 0x2C }
  - { offsetInCU: 0x14100, offset: 0x14100, size: 0x8, addend: 0x0, symName: __ZNSt3__114__split_bufferIPiNS_9allocatorIS1_EEE10push_frontEOS1_, symObjAddr: 0x6CF4, symBinAddr: 0x100007C78, symSize: 0x26C }
  - { offsetInCU: 0x14179, offset: 0x14179, size: 0x8, addend: 0x0, symName: __ZNSt3__114__split_bufferIPiRNS_9allocatorIS1_EEEC1EmmS4_, symObjAddr: 0x6F60, symBinAddr: 0x100007EE4, symSize: 0x44 }
  - { offsetInCU: 0x141D4, offset: 0x141D4, size: 0x8, addend: 0x0, symName: __ZNSt3__122__allocator_destructorINS_9allocatorIiEEEC1B7v160006ERS2_m, symObjAddr: 0x6FA4, symBinAddr: 0x100007F28, symSize: 0x3C }
  - { offsetInCU: 0x14288, offset: 0x14288, size: 0x8, addend: 0x0, symName: __ZNSt3__110unique_ptrIPiNS_22__allocator_destructorINS_9allocatorIiEEEEEC1B7v160006ILb1EvEES1_NS_16__dependent_typeINS_27__unique_ptr_deleter_sfinaeIS5_EEXT_EE20__good_rval_ref_typeE, symObjAddr: 0x6FE0, symBinAddr: 0x100007F64, symSize: 0x3C }
  - { offsetInCU: 0x142D9, offset: 0x142D9, size: 0x8, addend: 0x0, symName: __ZNSt3__114__split_bufferIPiRNS_9allocatorIS1_EEE9push_backEOS1_, symObjAddr: 0x701C, symBinAddr: 0x100007FA0, symSize: 0x270 }
  - { offsetInCU: 0x14352, offset: 0x14352, size: 0x8, addend: 0x0, symName: __ZNKSt3__110unique_ptrIPiNS_22__allocator_destructorINS_9allocatorIiEEEEE3getB7v160006Ev, symObjAddr: 0x728C, symBinAddr: 0x100008210, symSize: 0x28 }
  - { offsetInCU: 0x14378, offset: 0x14378, size: 0x8, addend: 0x0, symName: __ZNSt3__110unique_ptrIPiNS_22__allocator_destructorINS_9allocatorIiEEEEE7releaseB7v160006Ev, symObjAddr: 0x72B4, symBinAddr: 0x100008238, symSize: 0x44 }
  - { offsetInCU: 0x143AD, offset: 0x143AD, size: 0x8, addend: 0x0, symName: __ZNSt3__114__split_bufferIPiRNS_9allocatorIS1_EEE10push_frontERKS1_, symObjAddr: 0x72F8, symBinAddr: 0x10000827C, symSize: 0x26C }
  - { offsetInCU: 0x14426, offset: 0x14426, size: 0x8, addend: 0x0, symName: __ZNSt3__114__split_bufferIPiNS_9allocatorIS1_EEE9__end_capB7v160006Ev, symObjAddr: 0x75A0, symBinAddr: 0x100008524, symSize: 0x28 }
  - { offsetInCU: 0x1444C, offset: 0x1444C, size: 0x8, addend: 0x0, symName: __ZNSt3__114__split_bufferIPiRNS_9allocatorIS1_EEE9__end_capB7v160006Ev, symObjAddr: 0x75C8, symBinAddr: 0x10000854C, symSize: 0x28 }
  - { offsetInCU: 0x14472, offset: 0x14472, size: 0x8, addend: 0x0, symName: __ZNSt3__110unique_ptrIPiNS_22__allocator_destructorINS_9allocatorIiEEEEED1B7v160006Ev, symObjAddr: 0x75F0, symBinAddr: 0x100008574, symSize: 0x2C }
  - { offsetInCU: 0x1449C, offset: 0x1449C, size: 0x8, addend: 0x0, symName: __ZNSt3__114__split_bufferIPiRNS_9allocatorIS1_EEED1Ev, symObjAddr: 0x761C, symBinAddr: 0x1000085A0, symSize: 0x2C }
  - { offsetInCU: 0x144C8, offset: 0x144C8, size: 0x8, addend: 0x0, symName: __ZNSt3__114__split_bufferIPiRNS_9allocatorIS1_EEE18__construct_at_endINS_13move_iteratorIPS1_EEEENS_9enable_ifIXsr27__is_cpp17_forward_iteratorIT_EE5valueEvE4typeESB_SB_, symObjAddr: 0x7688, symBinAddr: 0x10000860C, symSize: 0x104 }
  - { offsetInCU: 0x14524, offset: 0x14524, size: 0x8, addend: 0x0, symName: __ZNSt3__113move_iteratorIPPiEC1B7v160006ES2_, symObjAddr: 0x778C, symBinAddr: 0x100008710, symSize: 0x34 }
  - { offsetInCU: 0x1455C, offset: 0x1455C, size: 0x8, addend: 0x0, symName: __ZNSt3__116allocator_traitsINS_9allocatorIPiEEE9constructB7v160006IS2_JRKS2_EvEEvRS3_PT_DpOT0_, symObjAddr: 0x77C0, symBinAddr: 0x100008744, symSize: 0x34 }
  - { offsetInCU: 0x145CC, offset: 0x145CC, size: 0x8, addend: 0x0, symName: __ZNKSt3__114__move_trivialclB7v160006IPiS2_Li0EEENS_4pairIPT_PT0_EES5_S5_S7_, symObjAddr: 0x79A0, symBinAddr: 0x100008924, symSize: 0x48 }
  - { offsetInCU: 0x14634, offset: 0x14634, size: 0x8, addend: 0x0, symName: __ZNSt3__14pairIPPiS2_EC1B7v160006ERKS2_S5_, symObjAddr: 0x7B7C, symBinAddr: 0x100008B00, symSize: 0x3C }
  - { offsetInCU: 0x1467A, offset: 0x1467A, size: 0x8, addend: 0x0, symName: __ZNSt3__14pairIPPiS2_EC2B7v160006ERKS2_S5_, symObjAddr: 0x7BB8, symBinAddr: 0x100008B3C, symSize: 0x34 }
  - { offsetInCU: 0x146C0, offset: 0x146C0, size: 0x8, addend: 0x0, symName: __ZNSt3__118__unwrap_iter_implIPPiLb1EE8__unwrapB7v160006ES2_, symObjAddr: 0x7BEC, symBinAddr: 0x100008B70, symSize: 0x24 }
  - { offsetInCU: 0x146E3, offset: 0x146E3, size: 0x8, addend: 0x0, symName: __ZNSt3__118__unwrap_iter_implIPPiLb1EE8__rewrapB7v160006ES2_S2_, symObjAddr: 0x7C10, symBinAddr: 0x100008B94, symSize: 0x50 }
  - { offsetInCU: 0x1471E, offset: 0x1471E, size: 0x8, addend: 0x0, symName: __ZNSt3__114__split_bufferIPiRNS_9allocatorIS1_EEE21_ConstructTransactionC1B7v160006EPPS1_m, symObjAddr: 0x7C9C, symBinAddr: 0x100008C20, symSize: 0x3C }
  - { offsetInCU: 0x14764, offset: 0x14764, size: 0x8, addend: 0x0, symName: __ZNSt3__116allocator_traitsINS_9allocatorIPiEEE9constructB7v160006IS2_JS2_EvEEvRS3_PT_DpOT0_, symObjAddr: 0x7CD8, symBinAddr: 0x100008C5C, symSize: 0x34 }
  - { offsetInCU: 0x147BB, offset: 0x147BB, size: 0x8, addend: 0x0, symName: __ZNSt3__114__split_bufferIPiRNS_9allocatorIS1_EEE7__allocB7v160006Ev, symObjAddr: 0x7D0C, symBinAddr: 0x100008C90, symSize: 0x28 }
  - { offsetInCU: 0x147E1, offset: 0x147E1, size: 0x8, addend: 0x0, symName: __ZNKSt3__113move_iteratorIPPiEdeB7v160006Ev, symObjAddr: 0x7D34, symBinAddr: 0x100008CB8, symSize: 0x18 }
  - { offsetInCU: 0x14807, offset: 0x14807, size: 0x8, addend: 0x0, symName: __ZNSt3__113move_iteratorIPPiEppB7v160006Ev, symObjAddr: 0x7D4C, symBinAddr: 0x100008CD0, symSize: 0x20 }
  - { offsetInCU: 0x1482D, offset: 0x1482D, size: 0x8, addend: 0x0, symName: __ZNSt3__114__split_bufferIPiRNS_9allocatorIS1_EEE21_ConstructTransactionD1B7v160006Ev, symObjAddr: 0x7D6C, symBinAddr: 0x100008CF0, symSize: 0x2C }
  - { offsetInCU: 0x14857, offset: 0x14857, size: 0x8, addend: 0x0, symName: __ZNKSt3__113move_iteratorIPPiE4baseB7v160006Ev, symObjAddr: 0x7E10, symBinAddr: 0x100008D94, symSize: 0x18 }
  - { offsetInCU: 0x1487D, offset: 0x1487D, size: 0x8, addend: 0x0, symName: __ZNSt3__114__split_bufferIPiRNS_9allocatorIS1_EEE21_ConstructTransactionC2B7v160006EPPS1_m, symObjAddr: 0x7E28, symBinAddr: 0x100008DAC, symSize: 0x44 }
  - { offsetInCU: 0x148C3, offset: 0x148C3, size: 0x8, addend: 0x0, symName: __ZNSt3__19allocatorIPiE9constructB7v160006IS1_JS1_EEEvPT_DpOT0_, symObjAddr: 0x7E6C, symBinAddr: 0x100008DF0, symSize: 0x28 }
  - { offsetInCU: 0x14919, offset: 0x14919, size: 0x8, addend: 0x0, symName: __ZNSt3__117__compressed_pairIPPiRNS_9allocatorIS1_EEE6secondB7v160006Ev, symObjAddr: 0x7E94, symBinAddr: 0x100008E18, symSize: 0x28 }
  - { offsetInCU: 0x1493F, offset: 0x1493F, size: 0x8, addend: 0x0, symName: __ZNSt3__122__compressed_pair_elemIRNS_9allocatorIPiEELi1ELb0EE5__getB7v160006Ev, symObjAddr: 0x7EBC, symBinAddr: 0x100008E40, symSize: 0x18 }
  - { offsetInCU: 0x14965, offset: 0x14965, size: 0x8, addend: 0x0, symName: __ZNSt3__114__split_bufferIPiRNS_9allocatorIS1_EEE21_ConstructTransactionD2B7v160006Ev, symObjAddr: 0x7ED4, symBinAddr: 0x100008E58, symSize: 0x20 }
  - { offsetInCU: 0x1498F, offset: 0x1498F, size: 0x8, addend: 0x0, symName: __ZNSt3__113move_iteratorIPPiEC2B7v160006ES2_, symObjAddr: 0x7EF4, symBinAddr: 0x100008E78, symSize: 0x20 }
  - { offsetInCU: 0x149C7, offset: 0x149C7, size: 0x8, addend: 0x0, symName: __ZNSt3__19allocatorIPiE9constructB7v160006IS1_JRKS1_EEEvPT_DpOT0_, symObjAddr: 0x7F14, symBinAddr: 0x100008E98, symSize: 0x28 }
  - { offsetInCU: 0x14A1D, offset: 0x14A1D, size: 0x8, addend: 0x0, symName: __ZNKSt3__123__move_backward_trivialclB7v160006IPiS2_Li0EEENS_4pairIPT_PT0_EES5_S5_S7_, symObjAddr: 0x80C8, symBinAddr: 0x10000904C, symSize: 0x48 }
  - { offsetInCU: 0x14A85, offset: 0x14A85, size: 0x8, addend: 0x0, symName: __ZNSt3__114__split_bufferIPiRNS_9allocatorIS1_EEEC2EmmS4_, symObjAddr: 0x81DC, symBinAddr: 0x100009160, symSize: 0xD4 }
  - { offsetInCU: 0x14AF9, offset: 0x14AF9, size: 0x8, addend: 0x0, symName: __ZNSt3__117__compressed_pairIPPiRNS_9allocatorIS1_EEEC1B7v160006IDnS5_EEOT_OT0_, symObjAddr: 0x82B0, symBinAddr: 0x100009234, symSize: 0x3C }
  - { offsetInCU: 0x14B51, offset: 0x14B51, size: 0x8, addend: 0x0, symName: __ZNSt3__117__compressed_pairIPPiRNS_9allocatorIS1_EEEC2B7v160006IDnS5_EEOT_OT0_, symObjAddr: 0x832C, symBinAddr: 0x1000092B0, symSize: 0x48 }
  - { offsetInCU: 0x14BA9, offset: 0x14BA9, size: 0x8, addend: 0x0, symName: __ZNSt3__122__compressed_pair_elemIRNS_9allocatorIPiEELi1ELb0EEC2B7v160006IS4_vEEOT_, symObjAddr: 0x8374, symBinAddr: 0x1000092F8, symSize: 0x20 }
  - { offsetInCU: 0x14BEB, offset: 0x14BEB, size: 0x8, addend: 0x0, symName: __ZNSt3__19allocatorIPiE8allocateB7v160006Em, symObjAddr: 0x8394, symBinAddr: 0x100009318, symSize: 0x84 }
  - { offsetInCU: 0x14C29, offset: 0x14C29, size: 0x8, addend: 0x0, symName: __ZNSt3__116allocator_traitsINS_9allocatorIPiEEE8max_sizeB7v160006IS3_vEEmRKS3_, symObjAddr: 0x8418, symBinAddr: 0x10000939C, symSize: 0x24 }
  - { offsetInCU: 0x14C57, offset: 0x14C57, size: 0x8, addend: 0x0, symName: __ZNKSt3__19allocatorIPiE8max_sizeB7v160006Ev, symObjAddr: 0x843C, symBinAddr: 0x1000093C0, symSize: 0x14 }
  - { offsetInCU: 0x14C7D, offset: 0x14C7D, size: 0x8, addend: 0x0, symName: __ZNSt3__122__allocator_destructorINS_9allocatorIiEEEC2B7v160006ERS2_m, symObjAddr: 0x8450, symBinAddr: 0x1000093D4, symSize: 0x2C }
  - { offsetInCU: 0x14CC3, offset: 0x14CC3, size: 0x8, addend: 0x0, symName: __ZNSt3__110unique_ptrIPiNS_22__allocator_destructorINS_9allocatorIiEEEEEC2B7v160006ILb1EvEES1_NS_16__dependent_typeINS_27__unique_ptr_deleter_sfinaeIS5_EEXT_EE20__good_rval_ref_typeE, symObjAddr: 0x847C, symBinAddr: 0x100009400, symSize: 0x5C }
  - { offsetInCU: 0x14D14, offset: 0x14D14, size: 0x8, addend: 0x0, symName: __ZNSt3__117__compressed_pairIPiNS_22__allocator_destructorINS_9allocatorIiEEEEEC1B7v160006IRS1_S5_EEOT_OT0_, symObjAddr: 0x84D8, symBinAddr: 0x10000945C, symSize: 0x3C }
  - { offsetInCU: 0x14D6C, offset: 0x14D6C, size: 0x8, addend: 0x0, symName: __ZNSt3__117__compressed_pairIPiNS_22__allocator_destructorINS_9allocatorIiEEEEEC2B7v160006IRS1_S5_EEOT_OT0_, symObjAddr: 0x8514, symBinAddr: 0x100009498, symSize: 0x48 }
  - { offsetInCU: 0x14DC4, offset: 0x14DC4, size: 0x8, addend: 0x0, symName: __ZNSt3__122__compressed_pair_elemIPiLi0ELb0EEC2B7v160006IRS1_vEEOT_, symObjAddr: 0x855C, symBinAddr: 0x1000094E0, symSize: 0x24 }
  - { offsetInCU: 0x14E06, offset: 0x14E06, size: 0x8, addend: 0x0, symName: __ZNSt3__122__compressed_pair_elemINS_22__allocator_destructorINS_9allocatorIiEEEELi1ELb0EEC2B7v160006IS4_vEEOT_, symObjAddr: 0x8580, symBinAddr: 0x100009504, symSize: 0x24 }
  - { offsetInCU: 0x14E48, offset: 0x14E48, size: 0x8, addend: 0x0, symName: __ZNKSt3__117__compressed_pairIPiNS_22__allocator_destructorINS_9allocatorIiEEEEE5firstB7v160006Ev, symObjAddr: 0x85A4, symBinAddr: 0x100009528, symSize: 0x24 }
  - { offsetInCU: 0x14E6E, offset: 0x14E6E, size: 0x8, addend: 0x0, symName: __ZNSt3__117__compressed_pairIPiNS_22__allocator_destructorINS_9allocatorIiEEEEE5firstB7v160006Ev, symObjAddr: 0x85C8, symBinAddr: 0x10000954C, symSize: 0x24 }
  - { offsetInCU: 0x14E94, offset: 0x14E94, size: 0x8, addend: 0x0, symName: __ZNSt3__117__compressed_pairIPPiNS_9allocatorIS1_EEE5firstB7v160006Ev, symObjAddr: 0x85EC, symBinAddr: 0x100009570, symSize: 0x24 }
  - { offsetInCU: 0x14EBA, offset: 0x14EBA, size: 0x8, addend: 0x0, symName: __ZNSt3__122__compressed_pair_elemIPPiLi0ELb0EE5__getB7v160006Ev, symObjAddr: 0x8610, symBinAddr: 0x100009594, symSize: 0x14 }
  - { offsetInCU: 0x14EE0, offset: 0x14EE0, size: 0x8, addend: 0x0, symName: __ZNSt3__117__compressed_pairIPPiRNS_9allocatorIS1_EEE5firstB7v160006Ev, symObjAddr: 0x8624, symBinAddr: 0x1000095A8, symSize: 0x24 }
  - { offsetInCU: 0x14F06, offset: 0x14F06, size: 0x8, addend: 0x0, symName: __ZNSt3__110unique_ptrIPiNS_22__allocator_destructorINS_9allocatorIiEEEEED2B7v160006Ev, symObjAddr: 0x8648, symBinAddr: 0x1000095CC, symSize: 0x30 }
  - { offsetInCU: 0x14F30, offset: 0x14F30, size: 0x8, addend: 0x0, symName: __ZNSt3__110unique_ptrIPiNS_22__allocator_destructorINS_9allocatorIiEEEEE5resetB7v160006ES1_, symObjAddr: 0x8678, symBinAddr: 0x1000095FC, symSize: 0x78 }
  - { offsetInCU: 0x14F74, offset: 0x14F74, size: 0x8, addend: 0x0, symName: __ZNSt3__117__compressed_pairIPiNS_22__allocator_destructorINS_9allocatorIiEEEEE6secondB7v160006Ev, symObjAddr: 0x86F0, symBinAddr: 0x100009674, symSize: 0x28 }
  - { offsetInCU: 0x14F9A, offset: 0x14F9A, size: 0x8, addend: 0x0, symName: __ZNSt3__122__allocator_destructorINS_9allocatorIiEEEclB7v160006EPi, symObjAddr: 0x8718, symBinAddr: 0x10000969C, symSize: 0x34 }
  - { offsetInCU: 0x14FCE, offset: 0x14FCE, size: 0x8, addend: 0x0, symName: __ZNSt3__122__compressed_pair_elemINS_22__allocator_destructorINS_9allocatorIiEEEELi1ELb0EE5__getB7v160006Ev, symObjAddr: 0x874C, symBinAddr: 0x1000096D0, symSize: 0x14 }
  - { offsetInCU: 0x14FF4, offset: 0x14FF4, size: 0x8, addend: 0x0, symName: __ZNSt3__114__split_bufferIPiRNS_9allocatorIS1_EEED2Ev, symObjAddr: 0x8760, symBinAddr: 0x1000096E4, symSize: 0x80 }
  - { offsetInCU: 0x15020, offset: 0x15020, size: 0x8, addend: 0x0, symName: __ZNSt3__114__split_bufferIPiRNS_9allocatorIS1_EEE5clearB7v160006Ev, symObjAddr: 0x87E0, symBinAddr: 0x100009764, symSize: 0x28 }
  - { offsetInCU: 0x15046, offset: 0x15046, size: 0x8, addend: 0x0, symName: __ZNKSt3__114__split_bufferIPiRNS_9allocatorIS1_EEE8capacityB7v160006Ev, symObjAddr: 0x8808, symBinAddr: 0x10000978C, symSize: 0x40 }
  - { offsetInCU: 0x1506C, offset: 0x1506C, size: 0x8, addend: 0x0, symName: __ZNSt3__114__split_bufferIPiRNS_9allocatorIS1_EEE17__destruct_at_endB7v160006EPS1_, symObjAddr: 0x8848, symBinAddr: 0x1000097CC, symSize: 0x2C }
  - { offsetInCU: 0x150A0, offset: 0x150A0, size: 0x8, addend: 0x0, symName: __ZNSt3__114__split_bufferIPiRNS_9allocatorIS1_EEE17__destruct_at_endB7v160006EPS1_NS_17integral_constantIbLb0EEE, symObjAddr: 0x8874, symBinAddr: 0x1000097F8, symSize: 0x94 }
  - { offsetInCU: 0x150E0, offset: 0x150E0, size: 0x8, addend: 0x0, symName: __ZNKSt3__114__split_bufferIPiRNS_9allocatorIS1_EEE9__end_capB7v160006Ev, symObjAddr: 0x8908, symBinAddr: 0x10000988C, symSize: 0x28 }
  - { offsetInCU: 0x15106, offset: 0x15106, size: 0x8, addend: 0x0, symName: __ZNKSt3__117__compressed_pairIPPiRNS_9allocatorIS1_EEE5firstB7v160006Ev, symObjAddr: 0x8930, symBinAddr: 0x1000098B4, symSize: 0x24 }
  - { offsetInCU: 0x1512C, offset: 0x1512C, size: 0x8, addend: 0x0, symName: __ZNSt3__19allocatorIiE9constructB7v160006IiJRKiEEEvPT_DpOT0_, symObjAddr: 0x8954, symBinAddr: 0x1000098D8, symSize: 0x28 }
  - { offsetInCU: 0x15182, offset: 0x15182, size: 0x8, addend: 0x0, symName: __ZNKSt3__15dequeIP8TreeNodeNS_9allocatorIS2_EEE5emptyB7v160006Ev, symObjAddr: 0x897C, symBinAddr: 0x100009900, symSize: 0x30 }
  - { offsetInCU: 0x151A8, offset: 0x151A8, size: 0x8, addend: 0x0, symName: __ZNSt3__15dequeIP8TreeNodeNS_9allocatorIS2_EEE5frontEv, symObjAddr: 0x89AC, symBinAddr: 0x100009930, symSize: 0x50 }
  - { offsetInCU: 0x151D0, offset: 0x151D0, size: 0x8, addend: 0x0, symName: __ZNSt3__15dequeIP8TreeNodeNS_9allocatorIS2_EEE9pop_frontEv, symObjAddr: 0x89FC, symBinAddr: 0x100009980, symSize: 0xAC }
  - { offsetInCU: 0x15207, offset: 0x15207, size: 0x8, addend: 0x0, symName: __ZNSt3__15dequeIP8TreeNodeNS_9allocatorIS2_EEE26__maybe_remove_front_spareB7v160006Eb, symObjAddr: 0x8ABC, symBinAddr: 0x100009A40, symSize: 0xDC }
  - { offsetInCU: 0x1523C, offset: 0x1523C, size: 0x8, addend: 0x0, symName: __ZNKSt3__15dequeIP8TreeNodeNS_9allocatorIS2_EEE20__front_spare_blocksB7v160006Ev, symObjAddr: 0x8B98, symBinAddr: 0x100009B1C, symSize: 0x2C }
  - { offsetInCU: 0x15262, offset: 0x15262, size: 0x8, addend: 0x0, symName: __ZNSt3__15dequeIiNS_9allocatorIiEEE5frontEv, symObjAddr: 0x8BC4, symBinAddr: 0x100009B48, symSize: 0x50 }
  - { offsetInCU: 0x1528A, offset: 0x1528A, size: 0x8, addend: 0x0, symName: __ZNSt3__15dequeIiNS_9allocatorIiEEE9pop_frontEv, symObjAddr: 0x8C14, symBinAddr: 0x100009B98, symSize: 0xAC }
  - { offsetInCU: 0x152C1, offset: 0x152C1, size: 0x8, addend: 0x0, symName: __ZNSt3__15dequeIiNS_9allocatorIiEEE26__maybe_remove_front_spareB7v160006Eb, symObjAddr: 0x8CC0, symBinAddr: 0x100009C44, symSize: 0xDC }
  - { offsetInCU: 0x152F6, offset: 0x152F6, size: 0x8, addend: 0x0, symName: __ZNKSt3__15dequeIiNS_9allocatorIiEEE20__front_spare_blocksB7v160006Ev, symObjAddr: 0x8D9C, symBinAddr: 0x100009D20, symSize: 0x2C }
  - { offsetInCU: 0x1531C, offset: 0x1531C, size: 0x8, addend: 0x0, symName: __ZNSt3__18ios_base5widthB7v160006El, symObjAddr: 0x8DC8, symBinAddr: 0x100009D4C, symSize: 0x2C }
  - { offsetInCU: 0x15362, offset: 0x15362, size: 0x8, addend: 0x0, symName: __ZNSt3__111char_traitsIcE6lengthEPKc, symObjAddr: 0x8FE8, symBinAddr: 0x100009F6C, symSize: 0x48 }
  - { offsetInCU: 0x153A3, offset: 0x153A3, size: 0x8, addend: 0x0, symName: __ZNKSt3__113basic_ostreamIcNS_11char_traitsIcEEE6sentrycvbB7v160006Ev, symObjAddr: 0x9030, symBinAddr: 0x100009FB4, symSize: 0x1C }
  - { offsetInCU: 0x153C9, offset: 0x153C9, size: 0x8, addend: 0x0, symName: __ZNSt3__119ostreambuf_iteratorIcNS_11char_traitsIcEEEC1B7v160006ERNS_13basic_ostreamIcS2_EE, symObjAddr: 0x9294, symBinAddr: 0x10000A218, symSize: 0x34 }
  - { offsetInCU: 0x15401, offset: 0x15401, size: 0x8, addend: 0x0, symName: __ZNKSt3__18ios_base5flagsB7v160006Ev, symObjAddr: 0x92C8, symBinAddr: 0x10000A24C, symSize: 0x18 }
  - { offsetInCU: 0x15429, offset: 0x15429, size: 0x8, addend: 0x0, symName: __ZNKSt3__19basic_iosIcNS_11char_traitsIcEEE4fillB7v160006Ev, symObjAddr: 0x92E0, symBinAddr: 0x10000A264, symSize: 0x64 }
  - { offsetInCU: 0x15451, offset: 0x15451, size: 0x8, addend: 0x0, symName: __ZNKSt3__119ostreambuf_iteratorIcNS_11char_traitsIcEEE6failedB7v160006Ev, symObjAddr: 0x9344, symBinAddr: 0x10000A2C8, symSize: 0x24 }
  - { offsetInCU: 0x15477, offset: 0x15477, size: 0x8, addend: 0x0, symName: __ZNSt3__19basic_iosIcNS_11char_traitsIcEEE8setstateB7v160006Ej, symObjAddr: 0x9368, symBinAddr: 0x10000A2EC, symSize: 0x2C }
  - { offsetInCU: 0x154AC, offset: 0x154AC, size: 0x8, addend: 0x0, symName: __ZNKSt3__18ios_base5widthB7v160006Ev, symObjAddr: 0x9394, symBinAddr: 0x10000A318, symSize: 0x18 }
  - { offsetInCU: 0x154D4, offset: 0x154D4, size: 0x8, addend: 0x0, symName: __ZNSt3__115basic_streambufIcNS_11char_traitsIcEEE5sputnB7v160006EPKcl, symObjAddr: 0x93AC, symBinAddr: 0x10000A330, symSize: 0x3C }
  - { offsetInCU: 0x15516, offset: 0x15516, size: 0x8, addend: 0x0, symName: __ZNSt3__112basic_stringIcNS_11char_traitsIcEENS_9allocatorIcEEEC1B7v160006Emc, symObjAddr: 0x93E8, symBinAddr: 0x10000A36C, symSize: 0x3C }
  - { offsetInCU: 0x1555E, offset: 0x1555E, size: 0x8, addend: 0x0, symName: __ZNKSt3__112basic_stringIcNS_11char_traitsIcEENS_9allocatorIcEEE4dataB7v160006Ev, symObjAddr: 0x9424, symBinAddr: 0x10000A3A8, symSize: 0x28 }
  - { offsetInCU: 0x15584, offset: 0x15584, size: 0x8, addend: 0x0, symName: __ZNSt3__112basic_stringIcNS_11char_traitsIcEENS_9allocatorIcEEEC2B7v160006Emc, symObjAddr: 0x944C, symBinAddr: 0x10000A3D0, symSize: 0x54 }
  - { offsetInCU: 0x155CC, offset: 0x155CC, size: 0x8, addend: 0x0, symName: __ZNSt3__117__compressed_pairINS_12basic_stringIcNS_11char_traitsIcEENS_9allocatorIcEEE5__repES5_EC1B7v160006INS_18__default_init_tagESA_EEOT_OT0_, symObjAddr: 0x94A0, symBinAddr: 0x10000A424, symSize: 0x3C }
  - { offsetInCU: 0x15624, offset: 0x15624, size: 0x8, addend: 0x0, symName: __ZNSt3__117__compressed_pairINS_12basic_stringIcNS_11char_traitsIcEENS_9allocatorIcEEE5__repES5_EC2B7v160006INS_18__default_init_tagESA_EEOT_OT0_, symObjAddr: 0x94EC, symBinAddr: 0x10000A470, symSize: 0x3C }
  - { offsetInCU: 0x1567C, offset: 0x1567C, size: 0x8, addend: 0x0, symName: __ZNSt3__122__compressed_pair_elemINS_12basic_stringIcNS_11char_traitsIcEENS_9allocatorIcEEE5__repELi0ELb0EEC2B7v160006ENS_18__default_init_tagE, symObjAddr: 0x9528, symBinAddr: 0x10000A4AC, symSize: 0x14 }
  - { offsetInCU: 0x156B0, offset: 0x156B0, size: 0x8, addend: 0x0, symName: __ZNSt3__122__compressed_pair_elemINS_9allocatorIcEELi1ELb1EEC2B7v160006ENS_18__default_init_tagE, symObjAddr: 0x953C, symBinAddr: 0x10000A4C0, symSize: 0x2C }
  - { offsetInCU: 0x156E4, offset: 0x156E4, size: 0x8, addend: 0x0, symName: __ZNSt3__19allocatorIcEC2B7v160006Ev, symObjAddr: 0x9568, symBinAddr: 0x10000A4EC, symSize: 0x2C }
  - { offsetInCU: 0x1570E, offset: 0x1570E, size: 0x8, addend: 0x0, symName: __ZNSt3__116__non_trivial_ifILb1ENS_9allocatorIcEEEC2B7v160006Ev, symObjAddr: 0x9594, symBinAddr: 0x10000A518, symSize: 0x14 }
  - { offsetInCU: 0x15738, offset: 0x15738, size: 0x8, addend: 0x0, symName: __ZNKSt3__112basic_stringIcNS_11char_traitsIcEENS_9allocatorIcEEE13__get_pointerB7v160006Ev, symObjAddr: 0x95BC, symBinAddr: 0x10000A540, symSize: 0x54 }
  - { offsetInCU: 0x1575E, offset: 0x1575E, size: 0x8, addend: 0x0, symName: __ZNKSt3__112basic_stringIcNS_11char_traitsIcEENS_9allocatorIcEEE9__is_longB7v160006Ev, symObjAddr: 0x9610, symBinAddr: 0x10000A594, symSize: 0x74 }
  - { offsetInCU: 0x15784, offset: 0x15784, size: 0x8, addend: 0x0, symName: __ZNKSt3__112basic_stringIcNS_11char_traitsIcEENS_9allocatorIcEEE18__get_long_pointerB7v160006Ev, symObjAddr: 0x9684, symBinAddr: 0x10000A608, symSize: 0x28 }
  - { offsetInCU: 0x157AA, offset: 0x157AA, size: 0x8, addend: 0x0, symName: __ZNKSt3__112basic_stringIcNS_11char_traitsIcEENS_9allocatorIcEEE19__get_short_pointerB7v160006Ev, symObjAddr: 0x96AC, symBinAddr: 0x10000A630, symSize: 0x28 }
  - { offsetInCU: 0x157D0, offset: 0x157D0, size: 0x8, addend: 0x0, symName: __ZNKSt3__117__compressed_pairINS_12basic_stringIcNS_11char_traitsIcEENS_9allocatorIcEEE5__repES5_E5firstB7v160006Ev, symObjAddr: 0x96D4, symBinAddr: 0x10000A658, symSize: 0x24 }
  - { offsetInCU: 0x157F6, offset: 0x157F6, size: 0x8, addend: 0x0, symName: __ZNKSt3__122__compressed_pair_elemINS_12basic_stringIcNS_11char_traitsIcEENS_9allocatorIcEEE5__repELi0ELb0EE5__getB7v160006Ev, symObjAddr: 0x96F8, symBinAddr: 0x10000A67C, symSize: 0x14 }
  - { offsetInCU: 0x1581C, offset: 0x1581C, size: 0x8, addend: 0x0, symName: __ZNSt3__114pointer_traitsIPKcE10pointer_toB7v160006ERS1_, symObjAddr: 0x970C, symBinAddr: 0x10000A690, symSize: 0x14 }
  - { offsetInCU: 0x1583F, offset: 0x1583F, size: 0x8, addend: 0x0, symName: __ZNSt3__119ostreambuf_iteratorIcNS_11char_traitsIcEEEC2B7v160006ERNS_13basic_ostreamIcS2_EE, symObjAddr: 0x9720, symBinAddr: 0x10000A6A4, symSize: 0x68 }
  - { offsetInCU: 0x15877, offset: 0x15877, size: 0x8, addend: 0x0, symName: __ZNKSt3__19basic_iosIcNS_11char_traitsIcEEE5rdbufB7v160006Ev, symObjAddr: 0x9788, symBinAddr: 0x10000A70C, symSize: 0x24 }
  - { offsetInCU: 0x1589F, offset: 0x1589F, size: 0x8, addend: 0x0, symName: __ZNKSt3__18ios_base5rdbufB7v160006Ev, symObjAddr: 0x97AC, symBinAddr: 0x10000A730, symSize: 0x18 }
  - { offsetInCU: 0x158C5, offset: 0x158C5, size: 0x8, addend: 0x0, symName: __ZNSt3__111char_traitsIcE11eq_int_typeEii, symObjAddr: 0x97C4, symBinAddr: 0x10000A748, symSize: 0x28 }
  - { offsetInCU: 0x158F6, offset: 0x158F6, size: 0x8, addend: 0x0, symName: __ZNSt3__111char_traitsIcE3eofEv, symObjAddr: 0x97EC, symBinAddr: 0x10000A770, symSize: 0x8 }
  - { offsetInCU: 0x1590A, offset: 0x1590A, size: 0x8, addend: 0x0, symName: __ZNKSt3__19basic_iosIcNS_11char_traitsIcEEE5widenB7v160006Ec, symObjAddr: 0x97F4, symBinAddr: 0x10000A778, symSize: 0x8C }
  - { offsetInCU: 0x15978, offset: 0x15978, size: 0x8, addend: 0x0, symName: __ZNKSt3__15ctypeIcE5widenB7v160006Ec, symObjAddr: 0x98AC, symBinAddr: 0x10000A830, symSize: 0x38 }
  - { offsetInCU: 0x159AD, offset: 0x159AD, size: 0x8, addend: 0x0, symName: __ZNSt3__18ios_base8setstateB7v160006Ej, symObjAddr: 0x98E4, symBinAddr: 0x10000A868, symSize: 0x34 }
  - { offsetInCU: 0x159E4, offset: 0x159E4, size: 0x8, addend: 0x0, symName: __ZNSt3__16vectorIiNS_9allocatorIiEEEC2ERKS3_, symObjAddr: 0x993C, symBinAddr: 0x10000A8C0, symSize: 0x118 }
  - { offsetInCU: 0x15A43, offset: 0x15A43, size: 0x8, addend: 0x0, symName: __ZNSt3__116allocator_traitsINS_9allocatorIiEEE37select_on_container_copy_constructionB7v160006IS2_vvEES2_RKS2_, symObjAddr: 0x9A54, symBinAddr: 0x10000A9D8, symSize: 0x10 }
  - { offsetInCU: 0x15A77, offset: 0x15A77, size: 0x8, addend: 0x0, symName: __ZNSt3__117__compressed_pairIPiNS_9allocatorIiEEEC1B7v160006IDnS3_EEOT_OT0_, symObjAddr: 0x9A64, symBinAddr: 0x10000A9E8, symSize: 0x3C }
  - { offsetInCU: 0x15ACF, offset: 0x15ACF, size: 0x8, addend: 0x0, symName: __ZNSt3__16vectorIiNS_9allocatorIiEEE18__construct_at_endIPiLi0EEEvT_S6_m, symObjAddr: 0x9AA0, symBinAddr: 0x10000AA24, symSize: 0x94 }
  - { offsetInCU: 0x15B42, offset: 0x15B42, size: 0x8, addend: 0x0, symName: __ZNSt3__117__compressed_pairIPiNS_9allocatorIiEEEC2B7v160006IDnS3_EEOT_OT0_, symObjAddr: 0x9B34, symBinAddr: 0x10000AAB8, symSize: 0x44 }
  - { offsetInCU: 0x15B9A, offset: 0x15B9A, size: 0x8, addend: 0x0, symName: __ZNSt3__122__compressed_pair_elemINS_9allocatorIiEELi1ELb1EEC2B7v160006IS2_vEEOT_, symObjAddr: 0x9B78, symBinAddr: 0x10000AAFC, symSize: 0x18 }
  - { offsetInCU: 0x15BDC, offset: 0x15BDC, size: 0x8, addend: 0x0, symName: __ZNSt3__129_AllocatorDestroyRangeReverseINS_9allocatorIiEEPiEC1B7v160006ERS2_RS3_S6_, symObjAddr: 0x9CD8, symBinAddr: 0x10000AC5C, symSize: 0x44 }
  - { offsetInCU: 0x15C33, offset: 0x15C33, size: 0x8, addend: 0x0, symName: __ZNSt3__116allocator_traitsINS_9allocatorIiEEE9constructB7v160006IiJRiEvEEvRS2_PT_DpOT0_, symObjAddr: 0x9D1C, symBinAddr: 0x10000ACA0, symSize: 0x34 }
  - { offsetInCU: 0x15C8A, offset: 0x15C8A, size: 0x8, addend: 0x0, symName: __ZNSt3__128__exception_guard_exceptionsINS_29_AllocatorDestroyRangeReverseINS_9allocatorIiEEPiEEE10__completeB7v160006Ev, symObjAddr: 0x9D50, symBinAddr: 0x10000ACD4, symSize: 0x1C }
  - { offsetInCU: 0x15CB0, offset: 0x15CB0, size: 0x8, addend: 0x0, symName: __ZNSt3__128__exception_guard_exceptionsINS_29_AllocatorDestroyRangeReverseINS_9allocatorIiEEPiEEED1B7v160006Ev, symObjAddr: 0x9D6C, symBinAddr: 0x10000ACF0, symSize: 0x2C }
  - { offsetInCU: 0x15CDA, offset: 0x15CDA, size: 0x8, addend: 0x0, symName: __ZNSt3__128__exception_guard_exceptionsINS_29_AllocatorDestroyRangeReverseINS_9allocatorIiEEPiEEEC1B7v160006ES5_, symObjAddr: 0x9D98, symBinAddr: 0x10000AD1C, symSize: 0x34 }
  - { offsetInCU: 0x15D13, offset: 0x15D13, size: 0x8, addend: 0x0, symName: __ZNSt3__128__exception_guard_exceptionsINS_29_AllocatorDestroyRangeReverseINS_9allocatorIiEEPiEEEC2B7v160006ES5_, symObjAddr: 0x9DCC, symBinAddr: 0x10000AD50, symSize: 0x30 }
  - { offsetInCU: 0x15D4C, offset: 0x15D4C, size: 0x8, addend: 0x0, symName: __ZNSt3__129_AllocatorDestroyRangeReverseINS_9allocatorIiEEPiEC2B7v160006ERS2_RS3_S6_, symObjAddr: 0x9DFC, symBinAddr: 0x10000AD80, symSize: 0x38 }
  - { offsetInCU: 0x15DA3, offset: 0x15DA3, size: 0x8, addend: 0x0, symName: __ZNSt3__19allocatorIiE9constructB7v160006IiJRiEEEvPT_DpOT0_, symObjAddr: 0x9E34, symBinAddr: 0x10000ADB8, symSize: 0x28 }
  - { offsetInCU: 0x15DF9, offset: 0x15DF9, size: 0x8, addend: 0x0, symName: __ZNSt3__128__exception_guard_exceptionsINS_29_AllocatorDestroyRangeReverseINS_9allocatorIiEEPiEEED2B7v160006Ev, symObjAddr: 0x9E5C, symBinAddr: 0x10000ADE0, symSize: 0x48 }
  - { offsetInCU: 0x15E23, offset: 0x15E23, size: 0x8, addend: 0x0, symName: __ZNKSt3__129_AllocatorDestroyRangeReverseINS_9allocatorIiEEPiEclB7v160006Ev, symObjAddr: 0x9EA4, symBinAddr: 0x10000AE28, symSize: 0x68 }
  - { offsetInCU: 0x15E49, offset: 0x15E49, size: 0x8, addend: 0x0, symName: __ZNSt3__116reverse_iteratorIPiEC1B7v160006ES1_, symObjAddr: 0x9F7C, symBinAddr: 0x10000AF00, symSize: 0x34 }
  - { offsetInCU: 0x15E81, offset: 0x15E81, size: 0x8, addend: 0x0, symName: __ZNSt3__116reverse_iteratorIPiEppB7v160006Ev, symObjAddr: 0xA01C, symBinAddr: 0x10000AFA0, symSize: 0x20 }
  - { offsetInCU: 0x15EA7, offset: 0x15EA7, size: 0x8, addend: 0x0, symName: __ZNKSt3__116reverse_iteratorIPiE4baseB7v160006Ev, symObjAddr: 0xA03C, symBinAddr: 0x10000AFC0, symSize: 0x18 }
  - { offsetInCU: 0x15ED2, offset: 0x15ED2, size: 0x8, addend: 0x0, symName: __ZNSt3__119__to_address_helperINS_16reverse_iteratorIPiEEvE6__callB7v160006ERKS3_, symObjAddr: 0xA054, symBinAddr: 0x10000AFD8, symSize: 0x4C }
  - { offsetInCU: 0x15EF5, offset: 0x15EF5, size: 0x8, addend: 0x0, symName: __ZNKSt3__116reverse_iteratorIPiEptB7v160006Ev, symObjAddr: 0xA0A0, symBinAddr: 0x10000B024, symSize: 0x24 }
  - { offsetInCU: 0x15F1B, offset: 0x15F1B, size: 0x8, addend: 0x0, symName: __ZNKSt3__116reverse_iteratorIPiEdeB7v160006Ev, symObjAddr: 0xA0C4, symBinAddr: 0x10000B048, symSize: 0x28 }
  - { offsetInCU: 0x15F4F, offset: 0x15F4F, size: 0x8, addend: 0x0, symName: __ZNSt3__116reverse_iteratorIPiEC2B7v160006ES1_, symObjAddr: 0xA0EC, symBinAddr: 0x10000B070, symSize: 0x28 }
...
